ARM GAS  /tmp/ccYoxJDu.s 			page 1


   1              		.cpu cortex-m0plus
   2              		.fpu softvfp
   3              		.eabi_attribute 20, 1
   4              		.eabi_attribute 21, 1
   5              		.eabi_attribute 23, 3
   6              		.eabi_attribute 24, 1
   7              		.eabi_attribute 25, 1
   8              		.eabi_attribute 26, 1
   9              		.eabi_attribute 30, 1
  10              		.eabi_attribute 34, 0
  11              		.eabi_attribute 18, 4
  12              		.code	16
  13              		.file	"stm32l0xx_hal_flash_ramfunc.c"
  14              		.text
  15              	.Ltext0:
  16              		.cfi_sections	.debug_frame
  17              		.section	.RamFunc,"ax",%progbits
  18              		.align	2
  19              		.code	16
  20              		.thumb_func
  22              	FLASHRAM_SetErrorCode:
  23              	.LFB42:
  24              		.file 1 "Drivers/STM32L0xx_HAL_Driver/Src/stm32l0xx_hal_flash_ramfunc.c"
   1:Drivers/STM32L0xx_HAL_Driver/Src/stm32l0xx_hal_flash_ramfunc.c **** /**
   2:Drivers/STM32L0xx_HAL_Driver/Src/stm32l0xx_hal_flash_ramfunc.c ****   ******************************************************************************
   3:Drivers/STM32L0xx_HAL_Driver/Src/stm32l0xx_hal_flash_ramfunc.c ****   * @file    stm32l0xx_hal_flash_ramfunc.c
   4:Drivers/STM32L0xx_HAL_Driver/Src/stm32l0xx_hal_flash_ramfunc.c ****   * @author  MCD Application Team
   5:Drivers/STM32L0xx_HAL_Driver/Src/stm32l0xx_hal_flash_ramfunc.c ****   * @version V1.8.1
   6:Drivers/STM32L0xx_HAL_Driver/Src/stm32l0xx_hal_flash_ramfunc.c ****   * @date    14-April-2017
   7:Drivers/STM32L0xx_HAL_Driver/Src/stm32l0xx_hal_flash_ramfunc.c ****   * @brief   FLASH RAMFUNC driver.
   8:Drivers/STM32L0xx_HAL_Driver/Src/stm32l0xx_hal_flash_ramfunc.c ****   *          This file provides a Flash firmware functions which should be 
   9:Drivers/STM32L0xx_HAL_Driver/Src/stm32l0xx_hal_flash_ramfunc.c ****   *          executed from internal SRAM
  10:Drivers/STM32L0xx_HAL_Driver/Src/stm32l0xx_hal_flash_ramfunc.c ****   *
  11:Drivers/STM32L0xx_HAL_Driver/Src/stm32l0xx_hal_flash_ramfunc.c ****   *  @verbatim
  12:Drivers/STM32L0xx_HAL_Driver/Src/stm32l0xx_hal_flash_ramfunc.c **** 
  13:Drivers/STM32L0xx_HAL_Driver/Src/stm32l0xx_hal_flash_ramfunc.c ****     *** ARM Compiler ***
  14:Drivers/STM32L0xx_HAL_Driver/Src/stm32l0xx_hal_flash_ramfunc.c ****     --------------------
  15:Drivers/STM32L0xx_HAL_Driver/Src/stm32l0xx_hal_flash_ramfunc.c ****     [..] RAM functions are defined using the toolchain options. 
  16:Drivers/STM32L0xx_HAL_Driver/Src/stm32l0xx_hal_flash_ramfunc.c ****          Functions that are be executed in RAM should reside in a separate
  17:Drivers/STM32L0xx_HAL_Driver/Src/stm32l0xx_hal_flash_ramfunc.c ****          source module. Using the 'Options for File' dialog you can simply change
  18:Drivers/STM32L0xx_HAL_Driver/Src/stm32l0xx_hal_flash_ramfunc.c ****          the 'Code / Const' area of a module to a memory space in physical RAM.
  19:Drivers/STM32L0xx_HAL_Driver/Src/stm32l0xx_hal_flash_ramfunc.c ****          Available memory areas are declared in the 'Target' tab of the 
  20:Drivers/STM32L0xx_HAL_Driver/Src/stm32l0xx_hal_flash_ramfunc.c ****          Options for Target' dialog.
  21:Drivers/STM32L0xx_HAL_Driver/Src/stm32l0xx_hal_flash_ramfunc.c **** 
  22:Drivers/STM32L0xx_HAL_Driver/Src/stm32l0xx_hal_flash_ramfunc.c ****     *** ICCARM Compiler ***
  23:Drivers/STM32L0xx_HAL_Driver/Src/stm32l0xx_hal_flash_ramfunc.c ****     -----------------------
  24:Drivers/STM32L0xx_HAL_Driver/Src/stm32l0xx_hal_flash_ramfunc.c ****     [..] RAM functions are defined using a specific toolchain keyword "__ramfunc".
  25:Drivers/STM32L0xx_HAL_Driver/Src/stm32l0xx_hal_flash_ramfunc.c **** 
  26:Drivers/STM32L0xx_HAL_Driver/Src/stm32l0xx_hal_flash_ramfunc.c ****     *** GNU Compiler ***
  27:Drivers/STM32L0xx_HAL_Driver/Src/stm32l0xx_hal_flash_ramfunc.c ****     --------------------
  28:Drivers/STM32L0xx_HAL_Driver/Src/stm32l0xx_hal_flash_ramfunc.c ****     [..] RAM functions are defined using a specific toolchain attribute
  29:Drivers/STM32L0xx_HAL_Driver/Src/stm32l0xx_hal_flash_ramfunc.c ****          "__attribute__((section(".RamFunc")))".
  30:Drivers/STM32L0xx_HAL_Driver/Src/stm32l0xx_hal_flash_ramfunc.c **** 
  31:Drivers/STM32L0xx_HAL_Driver/Src/stm32l0xx_hal_flash_ramfunc.c **** @endverbatim
  32:Drivers/STM32L0xx_HAL_Driver/Src/stm32l0xx_hal_flash_ramfunc.c ****   ******************************************************************************
  33:Drivers/STM32L0xx_HAL_Driver/Src/stm32l0xx_hal_flash_ramfunc.c ****   * @attention
  34:Drivers/STM32L0xx_HAL_Driver/Src/stm32l0xx_hal_flash_ramfunc.c ****   *
ARM GAS  /tmp/ccYoxJDu.s 			page 2


  35:Drivers/STM32L0xx_HAL_Driver/Src/stm32l0xx_hal_flash_ramfunc.c ****   * <h2><center>&copy; COPYRIGHT(c) 2016 STMicroelectronics</center></h2>
  36:Drivers/STM32L0xx_HAL_Driver/Src/stm32l0xx_hal_flash_ramfunc.c ****   *
  37:Drivers/STM32L0xx_HAL_Driver/Src/stm32l0xx_hal_flash_ramfunc.c ****   * Redistribution and use in source and binary forms, with or without modification,
  38:Drivers/STM32L0xx_HAL_Driver/Src/stm32l0xx_hal_flash_ramfunc.c ****   * are permitted provided that the following conditions are met:
  39:Drivers/STM32L0xx_HAL_Driver/Src/stm32l0xx_hal_flash_ramfunc.c ****   *   1. Redistributions of source code must retain the above copyright notice,
  40:Drivers/STM32L0xx_HAL_Driver/Src/stm32l0xx_hal_flash_ramfunc.c ****   *      this list of conditions and the following disclaimer.
  41:Drivers/STM32L0xx_HAL_Driver/Src/stm32l0xx_hal_flash_ramfunc.c ****   *   2. Redistributions in binary form must reproduce the above copyright notice,
  42:Drivers/STM32L0xx_HAL_Driver/Src/stm32l0xx_hal_flash_ramfunc.c ****   *      this list of conditions and the following disclaimer in the documentation
  43:Drivers/STM32L0xx_HAL_Driver/Src/stm32l0xx_hal_flash_ramfunc.c ****   *      and/or other materials provided with the distribution.
  44:Drivers/STM32L0xx_HAL_Driver/Src/stm32l0xx_hal_flash_ramfunc.c ****   *   3. Neither the name of STMicroelectronics nor the names of its contributors
  45:Drivers/STM32L0xx_HAL_Driver/Src/stm32l0xx_hal_flash_ramfunc.c ****   *      may be used to endorse or promote products derived from this software
  46:Drivers/STM32L0xx_HAL_Driver/Src/stm32l0xx_hal_flash_ramfunc.c ****   *      without specific prior written permission.
  47:Drivers/STM32L0xx_HAL_Driver/Src/stm32l0xx_hal_flash_ramfunc.c ****   *
  48:Drivers/STM32L0xx_HAL_Driver/Src/stm32l0xx_hal_flash_ramfunc.c ****   * THIS SOFTWARE IS PROVIDED BY THE COPYRIGHT HOLDERS AND CONTRIBUTORS "AS IS"
  49:Drivers/STM32L0xx_HAL_Driver/Src/stm32l0xx_hal_flash_ramfunc.c ****   * AND ANY EXPRESS OR IMPLIED WARRANTIES, INCLUDING, BUT NOT LIMITED TO, THE
  50:Drivers/STM32L0xx_HAL_Driver/Src/stm32l0xx_hal_flash_ramfunc.c ****   * IMPLIED WARRANTIES OF MERCHANTABILITY AND FITNESS FOR A PARTICULAR PURPOSE ARE
  51:Drivers/STM32L0xx_HAL_Driver/Src/stm32l0xx_hal_flash_ramfunc.c ****   * DISCLAIMED. IN NO EVENT SHALL THE COPYRIGHT HOLDER OR CONTRIBUTORS BE LIABLE
  52:Drivers/STM32L0xx_HAL_Driver/Src/stm32l0xx_hal_flash_ramfunc.c ****   * FOR ANY DIRECT, INDIRECT, INCIDENTAL, SPECIAL, EXEMPLARY, OR CONSEQUENTIAL
  53:Drivers/STM32L0xx_HAL_Driver/Src/stm32l0xx_hal_flash_ramfunc.c ****   * DAMAGES (INCLUDING, BUT NOT LIMITED TO, PROCUREMENT OF SUBSTITUTE GOODS OR
  54:Drivers/STM32L0xx_HAL_Driver/Src/stm32l0xx_hal_flash_ramfunc.c ****   * SERVICES; LOSS OF USE, DATA, OR PROFITS; OR BUSINESS INTERRUPTION) HOWEVER
  55:Drivers/STM32L0xx_HAL_Driver/Src/stm32l0xx_hal_flash_ramfunc.c ****   * CAUSED AND ON ANY THEORY OF LIABILITY, WHETHER IN CONTRACT, STRICT LIABILITY,
  56:Drivers/STM32L0xx_HAL_Driver/Src/stm32l0xx_hal_flash_ramfunc.c ****   * OR TORT (INCLUDING NEGLIGENCE OR OTHERWISE) ARISING IN ANY WAY OUT OF THE USE
  57:Drivers/STM32L0xx_HAL_Driver/Src/stm32l0xx_hal_flash_ramfunc.c ****   * OF THIS SOFTWARE, EVEN IF ADVISED OF THE POSSIBILITY OF SUCH DAMAGE.
  58:Drivers/STM32L0xx_HAL_Driver/Src/stm32l0xx_hal_flash_ramfunc.c ****   *
  59:Drivers/STM32L0xx_HAL_Driver/Src/stm32l0xx_hal_flash_ramfunc.c ****   ******************************************************************************
  60:Drivers/STM32L0xx_HAL_Driver/Src/stm32l0xx_hal_flash_ramfunc.c ****   */
  61:Drivers/STM32L0xx_HAL_Driver/Src/stm32l0xx_hal_flash_ramfunc.c **** 
  62:Drivers/STM32L0xx_HAL_Driver/Src/stm32l0xx_hal_flash_ramfunc.c **** /* Includes ------------------------------------------------------------------*/
  63:Drivers/STM32L0xx_HAL_Driver/Src/stm32l0xx_hal_flash_ramfunc.c **** #include "stm32l0xx_hal.h"
  64:Drivers/STM32L0xx_HAL_Driver/Src/stm32l0xx_hal_flash_ramfunc.c **** 
  65:Drivers/STM32L0xx_HAL_Driver/Src/stm32l0xx_hal_flash_ramfunc.c **** /** @addtogroup STM32L0xx_HAL_Driver
  66:Drivers/STM32L0xx_HAL_Driver/Src/stm32l0xx_hal_flash_ramfunc.c ****   * @{
  67:Drivers/STM32L0xx_HAL_Driver/Src/stm32l0xx_hal_flash_ramfunc.c ****   */
  68:Drivers/STM32L0xx_HAL_Driver/Src/stm32l0xx_hal_flash_ramfunc.c **** 
  69:Drivers/STM32L0xx_HAL_Driver/Src/stm32l0xx_hal_flash_ramfunc.c **** #ifdef HAL_FLASH_MODULE_ENABLED
  70:Drivers/STM32L0xx_HAL_Driver/Src/stm32l0xx_hal_flash_ramfunc.c **** 
  71:Drivers/STM32L0xx_HAL_Driver/Src/stm32l0xx_hal_flash_ramfunc.c **** /** @addtogroup FLASH
  72:Drivers/STM32L0xx_HAL_Driver/Src/stm32l0xx_hal_flash_ramfunc.c ****   * @{
  73:Drivers/STM32L0xx_HAL_Driver/Src/stm32l0xx_hal_flash_ramfunc.c ****   */
  74:Drivers/STM32L0xx_HAL_Driver/Src/stm32l0xx_hal_flash_ramfunc.c **** /** @addtogroup FLASH_Private_Variables
  75:Drivers/STM32L0xx_HAL_Driver/Src/stm32l0xx_hal_flash_ramfunc.c ****  * @{
  76:Drivers/STM32L0xx_HAL_Driver/Src/stm32l0xx_hal_flash_ramfunc.c ****  */
  77:Drivers/STM32L0xx_HAL_Driver/Src/stm32l0xx_hal_flash_ramfunc.c **** extern FLASH_ProcessTypeDef pFlash;
  78:Drivers/STM32L0xx_HAL_Driver/Src/stm32l0xx_hal_flash_ramfunc.c **** /**
  79:Drivers/STM32L0xx_HAL_Driver/Src/stm32l0xx_hal_flash_ramfunc.c ****   * @}
  80:Drivers/STM32L0xx_HAL_Driver/Src/stm32l0xx_hal_flash_ramfunc.c ****   */
  81:Drivers/STM32L0xx_HAL_Driver/Src/stm32l0xx_hal_flash_ramfunc.c **** 
  82:Drivers/STM32L0xx_HAL_Driver/Src/stm32l0xx_hal_flash_ramfunc.c **** /**
  83:Drivers/STM32L0xx_HAL_Driver/Src/stm32l0xx_hal_flash_ramfunc.c ****   * @}
  84:Drivers/STM32L0xx_HAL_Driver/Src/stm32l0xx_hal_flash_ramfunc.c ****   */
  85:Drivers/STM32L0xx_HAL_Driver/Src/stm32l0xx_hal_flash_ramfunc.c ****   
  86:Drivers/STM32L0xx_HAL_Driver/Src/stm32l0xx_hal_flash_ramfunc.c **** /** @defgroup FLASH_RAMFUNC FLASH_RAMFUNC
  87:Drivers/STM32L0xx_HAL_Driver/Src/stm32l0xx_hal_flash_ramfunc.c ****   * @brief FLASH functions executed from RAM
  88:Drivers/STM32L0xx_HAL_Driver/Src/stm32l0xx_hal_flash_ramfunc.c ****   * @{
  89:Drivers/STM32L0xx_HAL_Driver/Src/stm32l0xx_hal_flash_ramfunc.c ****   */ 
  90:Drivers/STM32L0xx_HAL_Driver/Src/stm32l0xx_hal_flash_ramfunc.c **** 
  91:Drivers/STM32L0xx_HAL_Driver/Src/stm32l0xx_hal_flash_ramfunc.c **** 
ARM GAS  /tmp/ccYoxJDu.s 			page 3


  92:Drivers/STM32L0xx_HAL_Driver/Src/stm32l0xx_hal_flash_ramfunc.c **** /* Private typedef -----------------------------------------------------------*/
  93:Drivers/STM32L0xx_HAL_Driver/Src/stm32l0xx_hal_flash_ramfunc.c **** /* Private define ------------------------------------------------------------*/
  94:Drivers/STM32L0xx_HAL_Driver/Src/stm32l0xx_hal_flash_ramfunc.c **** /* Private macro -------------------------------------------------------------*/
  95:Drivers/STM32L0xx_HAL_Driver/Src/stm32l0xx_hal_flash_ramfunc.c **** /* Private variables ---------------------------------------------------------*/
  96:Drivers/STM32L0xx_HAL_Driver/Src/stm32l0xx_hal_flash_ramfunc.c **** /* Private function prototypes -----------------------------------------------*/
  97:Drivers/STM32L0xx_HAL_Driver/Src/stm32l0xx_hal_flash_ramfunc.c **** /** @defgroup FLASH_RAMFUNC_Private_Functions FLASH RAM Private Functions
  98:Drivers/STM32L0xx_HAL_Driver/Src/stm32l0xx_hal_flash_ramfunc.c ****  * @{
  99:Drivers/STM32L0xx_HAL_Driver/Src/stm32l0xx_hal_flash_ramfunc.c ****  */
 100:Drivers/STM32L0xx_HAL_Driver/Src/stm32l0xx_hal_flash_ramfunc.c **** 
 101:Drivers/STM32L0xx_HAL_Driver/Src/stm32l0xx_hal_flash_ramfunc.c **** static __RAM_FUNC FLASHRAM_WaitForLastOperation(uint32_t Timeout);
 102:Drivers/STM32L0xx_HAL_Driver/Src/stm32l0xx_hal_flash_ramfunc.c **** static __RAM_FUNC FLASHRAM_SetErrorCode(void);
 103:Drivers/STM32L0xx_HAL_Driver/Src/stm32l0xx_hal_flash_ramfunc.c **** 
 104:Drivers/STM32L0xx_HAL_Driver/Src/stm32l0xx_hal_flash_ramfunc.c **** /**
 105:Drivers/STM32L0xx_HAL_Driver/Src/stm32l0xx_hal_flash_ramfunc.c ****   * @}
 106:Drivers/STM32L0xx_HAL_Driver/Src/stm32l0xx_hal_flash_ramfunc.c ****   */
 107:Drivers/STM32L0xx_HAL_Driver/Src/stm32l0xx_hal_flash_ramfunc.c **** 
 108:Drivers/STM32L0xx_HAL_Driver/Src/stm32l0xx_hal_flash_ramfunc.c **** /* Private functions ---------------------------------------------------------*/
 109:Drivers/STM32L0xx_HAL_Driver/Src/stm32l0xx_hal_flash_ramfunc.c ****  
 110:Drivers/STM32L0xx_HAL_Driver/Src/stm32l0xx_hal_flash_ramfunc.c **** /** @defgroup FLASH_RAMFUNC_Exported_Functions FLASH RAM Exported Functions
 111:Drivers/STM32L0xx_HAL_Driver/Src/stm32l0xx_hal_flash_ramfunc.c ****  *
 112:Drivers/STM32L0xx_HAL_Driver/Src/stm32l0xx_hal_flash_ramfunc.c **** @verbatim  
 113:Drivers/STM32L0xx_HAL_Driver/Src/stm32l0xx_hal_flash_ramfunc.c ****  ===============================================================================
 114:Drivers/STM32L0xx_HAL_Driver/Src/stm32l0xx_hal_flash_ramfunc.c ****                       ##### ramfunc functions #####
 115:Drivers/STM32L0xx_HAL_Driver/Src/stm32l0xx_hal_flash_ramfunc.c ****  ===============================================================================  
 116:Drivers/STM32L0xx_HAL_Driver/Src/stm32l0xx_hal_flash_ramfunc.c ****     [..]
 117:Drivers/STM32L0xx_HAL_Driver/Src/stm32l0xx_hal_flash_ramfunc.c ****     This subsection provides a set of functions that should be executed from RAM 
 118:Drivers/STM32L0xx_HAL_Driver/Src/stm32l0xx_hal_flash_ramfunc.c ****     transfers.
 119:Drivers/STM32L0xx_HAL_Driver/Src/stm32l0xx_hal_flash_ramfunc.c **** 
 120:Drivers/STM32L0xx_HAL_Driver/Src/stm32l0xx_hal_flash_ramfunc.c **** @endverbatim
 121:Drivers/STM32L0xx_HAL_Driver/Src/stm32l0xx_hal_flash_ramfunc.c ****   * @{
 122:Drivers/STM32L0xx_HAL_Driver/Src/stm32l0xx_hal_flash_ramfunc.c ****   */ 
 123:Drivers/STM32L0xx_HAL_Driver/Src/stm32l0xx_hal_flash_ramfunc.c **** 
 124:Drivers/STM32L0xx_HAL_Driver/Src/stm32l0xx_hal_flash_ramfunc.c **** /** @defgroup FLASH_RAMFUNC_Exported_Functions_Group1 Peripheral features functions 
 125:Drivers/STM32L0xx_HAL_Driver/Src/stm32l0xx_hal_flash_ramfunc.c ****   * @{
 126:Drivers/STM32L0xx_HAL_Driver/Src/stm32l0xx_hal_flash_ramfunc.c ****   */  
 127:Drivers/STM32L0xx_HAL_Driver/Src/stm32l0xx_hal_flash_ramfunc.c **** 
 128:Drivers/STM32L0xx_HAL_Driver/Src/stm32l0xx_hal_flash_ramfunc.c **** /**
 129:Drivers/STM32L0xx_HAL_Driver/Src/stm32l0xx_hal_flash_ramfunc.c ****   * @brief  Enable  the power down mode during RUN mode.
 130:Drivers/STM32L0xx_HAL_Driver/Src/stm32l0xx_hal_flash_ramfunc.c ****   * @note  This function can be used only when the user code is running from Internal SRAM.
 131:Drivers/STM32L0xx_HAL_Driver/Src/stm32l0xx_hal_flash_ramfunc.c ****   * @retval HAL status
 132:Drivers/STM32L0xx_HAL_Driver/Src/stm32l0xx_hal_flash_ramfunc.c ****   */
 133:Drivers/STM32L0xx_HAL_Driver/Src/stm32l0xx_hal_flash_ramfunc.c **** __RAM_FUNC HAL_FLASHEx_EnableRunPowerDown(void)
 134:Drivers/STM32L0xx_HAL_Driver/Src/stm32l0xx_hal_flash_ramfunc.c **** {
 135:Drivers/STM32L0xx_HAL_Driver/Src/stm32l0xx_hal_flash_ramfunc.c ****   /* Enable the Power Down in Run mode*/
 136:Drivers/STM32L0xx_HAL_Driver/Src/stm32l0xx_hal_flash_ramfunc.c ****   __HAL_FLASH_POWER_DOWN_ENABLE();
 137:Drivers/STM32L0xx_HAL_Driver/Src/stm32l0xx_hal_flash_ramfunc.c **** 
 138:Drivers/STM32L0xx_HAL_Driver/Src/stm32l0xx_hal_flash_ramfunc.c ****   return HAL_OK;
 139:Drivers/STM32L0xx_HAL_Driver/Src/stm32l0xx_hal_flash_ramfunc.c **** }
 140:Drivers/STM32L0xx_HAL_Driver/Src/stm32l0xx_hal_flash_ramfunc.c **** 
 141:Drivers/STM32L0xx_HAL_Driver/Src/stm32l0xx_hal_flash_ramfunc.c **** /**
 142:Drivers/STM32L0xx_HAL_Driver/Src/stm32l0xx_hal_flash_ramfunc.c ****   * @brief  Disable the power down mode during RUN mode.
 143:Drivers/STM32L0xx_HAL_Driver/Src/stm32l0xx_hal_flash_ramfunc.c ****   * @note  This function can be used only when the user code is running from Internal SRAM.
 144:Drivers/STM32L0xx_HAL_Driver/Src/stm32l0xx_hal_flash_ramfunc.c ****   * @retval HAL status
 145:Drivers/STM32L0xx_HAL_Driver/Src/stm32l0xx_hal_flash_ramfunc.c ****   */
 146:Drivers/STM32L0xx_HAL_Driver/Src/stm32l0xx_hal_flash_ramfunc.c **** __RAM_FUNC HAL_FLASHEx_DisableRunPowerDown(void)
 147:Drivers/STM32L0xx_HAL_Driver/Src/stm32l0xx_hal_flash_ramfunc.c **** {
 148:Drivers/STM32L0xx_HAL_Driver/Src/stm32l0xx_hal_flash_ramfunc.c ****   /* Disable the Power Down in Run mode*/
ARM GAS  /tmp/ccYoxJDu.s 			page 4


 149:Drivers/STM32L0xx_HAL_Driver/Src/stm32l0xx_hal_flash_ramfunc.c ****   __HAL_FLASH_POWER_DOWN_DISABLE();
 150:Drivers/STM32L0xx_HAL_Driver/Src/stm32l0xx_hal_flash_ramfunc.c **** 
 151:Drivers/STM32L0xx_HAL_Driver/Src/stm32l0xx_hal_flash_ramfunc.c ****   return HAL_OK;  
 152:Drivers/STM32L0xx_HAL_Driver/Src/stm32l0xx_hal_flash_ramfunc.c **** }
 153:Drivers/STM32L0xx_HAL_Driver/Src/stm32l0xx_hal_flash_ramfunc.c **** 
 154:Drivers/STM32L0xx_HAL_Driver/Src/stm32l0xx_hal_flash_ramfunc.c **** /**
 155:Drivers/STM32L0xx_HAL_Driver/Src/stm32l0xx_hal_flash_ramfunc.c ****   * @}
 156:Drivers/STM32L0xx_HAL_Driver/Src/stm32l0xx_hal_flash_ramfunc.c ****   */
 157:Drivers/STM32L0xx_HAL_Driver/Src/stm32l0xx_hal_flash_ramfunc.c **** 
 158:Drivers/STM32L0xx_HAL_Driver/Src/stm32l0xx_hal_flash_ramfunc.c **** /** @defgroup FLASH_RAMFUNC_Exported_Functions_Group2 Programming and erasing operation functions 
 159:Drivers/STM32L0xx_HAL_Driver/Src/stm32l0xx_hal_flash_ramfunc.c ****  *
 160:Drivers/STM32L0xx_HAL_Driver/Src/stm32l0xx_hal_flash_ramfunc.c **** @verbatim  
 161:Drivers/STM32L0xx_HAL_Driver/Src/stm32l0xx_hal_flash_ramfunc.c **** @endverbatim
 162:Drivers/STM32L0xx_HAL_Driver/Src/stm32l0xx_hal_flash_ramfunc.c ****   * @{
 163:Drivers/STM32L0xx_HAL_Driver/Src/stm32l0xx_hal_flash_ramfunc.c ****   */
 164:Drivers/STM32L0xx_HAL_Driver/Src/stm32l0xx_hal_flash_ramfunc.c **** 
 165:Drivers/STM32L0xx_HAL_Driver/Src/stm32l0xx_hal_flash_ramfunc.c **** #if defined(FLASH_PECR_PARALLBANK)
 166:Drivers/STM32L0xx_HAL_Driver/Src/stm32l0xx_hal_flash_ramfunc.c **** /**
 167:Drivers/STM32L0xx_HAL_Driver/Src/stm32l0xx_hal_flash_ramfunc.c ****   * @brief  Erases a specified 2 pages in program memory in parallel.
 168:Drivers/STM32L0xx_HAL_Driver/Src/stm32l0xx_hal_flash_ramfunc.c ****   * @note   This function can be used only for STM32L07xxx/STM32L08xxx  devices.
 169:Drivers/STM32L0xx_HAL_Driver/Src/stm32l0xx_hal_flash_ramfunc.c ****   *         To correctly run this function, the @ref HAL_FLASH_Unlock() function
 170:Drivers/STM32L0xx_HAL_Driver/Src/stm32l0xx_hal_flash_ramfunc.c ****   *         must be called before.
 171:Drivers/STM32L0xx_HAL_Driver/Src/stm32l0xx_hal_flash_ramfunc.c ****   *         Call the @ref HAL_FLASH_Lock() to disable the flash memory access 
 172:Drivers/STM32L0xx_HAL_Driver/Src/stm32l0xx_hal_flash_ramfunc.c ****   *        (recommended to protect the FLASH memory against possible unwanted operation).
 173:Drivers/STM32L0xx_HAL_Driver/Src/stm32l0xx_hal_flash_ramfunc.c ****   * @param  Page_Address1: The page address in program memory to be erased in 
 174:Drivers/STM32L0xx_HAL_Driver/Src/stm32l0xx_hal_flash_ramfunc.c ****   *         the first Bank (BANK1). This parameter should be between FLASH_BASE
 175:Drivers/STM32L0xx_HAL_Driver/Src/stm32l0xx_hal_flash_ramfunc.c ****   *         and FLASH_BANK1_END.
 176:Drivers/STM32L0xx_HAL_Driver/Src/stm32l0xx_hal_flash_ramfunc.c ****   * @param  Page_Address2: The page address in program memory to be erased in 
 177:Drivers/STM32L0xx_HAL_Driver/Src/stm32l0xx_hal_flash_ramfunc.c ****   *         the second Bank (BANK2). This parameter should be between FLASH_BANK2_BASE
 178:Drivers/STM32L0xx_HAL_Driver/Src/stm32l0xx_hal_flash_ramfunc.c ****   *         and FLASH_BANK2_END.
 179:Drivers/STM32L0xx_HAL_Driver/Src/stm32l0xx_hal_flash_ramfunc.c ****   * @note   A Page is erased in the Program memory only if the address to load 
 180:Drivers/STM32L0xx_HAL_Driver/Src/stm32l0xx_hal_flash_ramfunc.c ****   *         is the start address of a page (multiple of @ref FLASH_PAGE_SIZE bytes).
 181:Drivers/STM32L0xx_HAL_Driver/Src/stm32l0xx_hal_flash_ramfunc.c ****   * @retval HAL status
 182:Drivers/STM32L0xx_HAL_Driver/Src/stm32l0xx_hal_flash_ramfunc.c ****   */
 183:Drivers/STM32L0xx_HAL_Driver/Src/stm32l0xx_hal_flash_ramfunc.c **** __RAM_FUNC HAL_FLASHEx_EraseParallelPage(uint32_t Page_Address1, uint32_t Page_Address2)
 184:Drivers/STM32L0xx_HAL_Driver/Src/stm32l0xx_hal_flash_ramfunc.c **** {
 185:Drivers/STM32L0xx_HAL_Driver/Src/stm32l0xx_hal_flash_ramfunc.c ****   HAL_StatusTypeDef status = HAL_OK;
 186:Drivers/STM32L0xx_HAL_Driver/Src/stm32l0xx_hal_flash_ramfunc.c **** 
 187:Drivers/STM32L0xx_HAL_Driver/Src/stm32l0xx_hal_flash_ramfunc.c ****   /* Wait for last operation to be completed */
 188:Drivers/STM32L0xx_HAL_Driver/Src/stm32l0xx_hal_flash_ramfunc.c ****   status = FLASHRAM_WaitForLastOperation(FLASH_TIMEOUT_VALUE);
 189:Drivers/STM32L0xx_HAL_Driver/Src/stm32l0xx_hal_flash_ramfunc.c ****   
 190:Drivers/STM32L0xx_HAL_Driver/Src/stm32l0xx_hal_flash_ramfunc.c ****   if(status == HAL_OK)
 191:Drivers/STM32L0xx_HAL_Driver/Src/stm32l0xx_hal_flash_ramfunc.c ****   {
 192:Drivers/STM32L0xx_HAL_Driver/Src/stm32l0xx_hal_flash_ramfunc.c ****     /* Proceed to erase the page */
 193:Drivers/STM32L0xx_HAL_Driver/Src/stm32l0xx_hal_flash_ramfunc.c ****     SET_BIT(FLASH->PECR, FLASH_PECR_PARALLBANK);
 194:Drivers/STM32L0xx_HAL_Driver/Src/stm32l0xx_hal_flash_ramfunc.c ****     SET_BIT(FLASH->PECR, FLASH_PECR_ERASE);
 195:Drivers/STM32L0xx_HAL_Driver/Src/stm32l0xx_hal_flash_ramfunc.c ****     SET_BIT(FLASH->PECR, FLASH_PECR_PROG);
 196:Drivers/STM32L0xx_HAL_Driver/Src/stm32l0xx_hal_flash_ramfunc.c ****   
 197:Drivers/STM32L0xx_HAL_Driver/Src/stm32l0xx_hal_flash_ramfunc.c ****     /* Write 00000000h to the first word of the first program page to erase */
 198:Drivers/STM32L0xx_HAL_Driver/Src/stm32l0xx_hal_flash_ramfunc.c ****     *(__IO uint32_t *)Page_Address1 = 0x00000000U;
 199:Drivers/STM32L0xx_HAL_Driver/Src/stm32l0xx_hal_flash_ramfunc.c ****     /* Write 00000000h to the first word of the second program page to erase */    
 200:Drivers/STM32L0xx_HAL_Driver/Src/stm32l0xx_hal_flash_ramfunc.c ****     *(__IO uint32_t *)Page_Address2 = 0x00000000U;
 201:Drivers/STM32L0xx_HAL_Driver/Src/stm32l0xx_hal_flash_ramfunc.c ****  
 202:Drivers/STM32L0xx_HAL_Driver/Src/stm32l0xx_hal_flash_ramfunc.c ****     /* Wait for last operation to be completed */
 203:Drivers/STM32L0xx_HAL_Driver/Src/stm32l0xx_hal_flash_ramfunc.c ****     status = FLASHRAM_WaitForLastOperation(FLASH_TIMEOUT_VALUE);
 204:Drivers/STM32L0xx_HAL_Driver/Src/stm32l0xx_hal_flash_ramfunc.c **** 
 205:Drivers/STM32L0xx_HAL_Driver/Src/stm32l0xx_hal_flash_ramfunc.c ****     /* If the erase operation is completed, disable the ERASE, PROG and PARALLBANK bits */
ARM GAS  /tmp/ccYoxJDu.s 			page 5


 206:Drivers/STM32L0xx_HAL_Driver/Src/stm32l0xx_hal_flash_ramfunc.c ****     CLEAR_BIT(FLASH->PECR, FLASH_PECR_PROG);
 207:Drivers/STM32L0xx_HAL_Driver/Src/stm32l0xx_hal_flash_ramfunc.c ****     CLEAR_BIT(FLASH->PECR, FLASH_PECR_ERASE);
 208:Drivers/STM32L0xx_HAL_Driver/Src/stm32l0xx_hal_flash_ramfunc.c ****     CLEAR_BIT(FLASH->PECR, FLASH_PECR_PARALLBANK);
 209:Drivers/STM32L0xx_HAL_Driver/Src/stm32l0xx_hal_flash_ramfunc.c ****   }     
 210:Drivers/STM32L0xx_HAL_Driver/Src/stm32l0xx_hal_flash_ramfunc.c ****   /* Return the Erase Status */
 211:Drivers/STM32L0xx_HAL_Driver/Src/stm32l0xx_hal_flash_ramfunc.c ****   return status;
 212:Drivers/STM32L0xx_HAL_Driver/Src/stm32l0xx_hal_flash_ramfunc.c **** }
 213:Drivers/STM32L0xx_HAL_Driver/Src/stm32l0xx_hal_flash_ramfunc.c **** 
 214:Drivers/STM32L0xx_HAL_Driver/Src/stm32l0xx_hal_flash_ramfunc.c **** /**
 215:Drivers/STM32L0xx_HAL_Driver/Src/stm32l0xx_hal_flash_ramfunc.c ****   * @brief  Program 2 half pages in program memory in parallel (half page size is 16 Words).
 216:Drivers/STM32L0xx_HAL_Driver/Src/stm32l0xx_hal_flash_ramfunc.c ****   * @note   This function can be used only for STM32L07xxx/STM32L08xxx  devices.
 217:Drivers/STM32L0xx_HAL_Driver/Src/stm32l0xx_hal_flash_ramfunc.c ****   * @param  Address1: specifies the first address to be written in the first bank 
 218:Drivers/STM32L0xx_HAL_Driver/Src/stm32l0xx_hal_flash_ramfunc.c ****   *        (BANK1). This parameter should be between FLASH_BASE and (FLASH_BANK1_END - FLASH_PAGE_S
 219:Drivers/STM32L0xx_HAL_Driver/Src/stm32l0xx_hal_flash_ramfunc.c ****   * @param  pBuffer1: pointer to the buffer  containing the data to be  written 
 220:Drivers/STM32L0xx_HAL_Driver/Src/stm32l0xx_hal_flash_ramfunc.c ****   *         to the first half page in the first bank.
 221:Drivers/STM32L0xx_HAL_Driver/Src/stm32l0xx_hal_flash_ramfunc.c ****   * @param  Address2: specifies the second address to be written in the second bank
 222:Drivers/STM32L0xx_HAL_Driver/Src/stm32l0xx_hal_flash_ramfunc.c ****   *        (BANK2). This parameter should be between FLASH_BANK2_BASE and (FLASH_BANK2_END - FLASH_
 223:Drivers/STM32L0xx_HAL_Driver/Src/stm32l0xx_hal_flash_ramfunc.c ****   * @param  pBuffer2: pointer to the buffer containing the data to be  written 
 224:Drivers/STM32L0xx_HAL_Driver/Src/stm32l0xx_hal_flash_ramfunc.c ****   *         to the second half page in the second bank.
 225:Drivers/STM32L0xx_HAL_Driver/Src/stm32l0xx_hal_flash_ramfunc.c ****   * @note   To correctly run this function, the @ref HAL_FLASH_Unlock() function
 226:Drivers/STM32L0xx_HAL_Driver/Src/stm32l0xx_hal_flash_ramfunc.c ****   *         must be called before.
 227:Drivers/STM32L0xx_HAL_Driver/Src/stm32l0xx_hal_flash_ramfunc.c ****   *         Call the @ref HAL_FLASH_Lock() to disable the flash memory access  
 228:Drivers/STM32L0xx_HAL_Driver/Src/stm32l0xx_hal_flash_ramfunc.c ****   *         (recommended to protect the FLASH memory against possible unwanted operation).
 229:Drivers/STM32L0xx_HAL_Driver/Src/stm32l0xx_hal_flash_ramfunc.c ****   * @note   Half page write is possible only from SRAM.
 230:Drivers/STM32L0xx_HAL_Driver/Src/stm32l0xx_hal_flash_ramfunc.c ****   * @note   A half page is written to the program memory only if the first 
 231:Drivers/STM32L0xx_HAL_Driver/Src/stm32l0xx_hal_flash_ramfunc.c ****   *         address to load is the start address of a half page (multiple of 64 
 232:Drivers/STM32L0xx_HAL_Driver/Src/stm32l0xx_hal_flash_ramfunc.c ****   *         bytes) and the 15 remaining words to load are in the same half page.
 233:Drivers/STM32L0xx_HAL_Driver/Src/stm32l0xx_hal_flash_ramfunc.c ****   * @note   During the Program memory half page write all read operations are 
 234:Drivers/STM32L0xx_HAL_Driver/Src/stm32l0xx_hal_flash_ramfunc.c ****   *         forbidden (this includes DMA read operations and debugger read 
 235:Drivers/STM32L0xx_HAL_Driver/Src/stm32l0xx_hal_flash_ramfunc.c ****   *         operations such as breakpoints, periodic updates, etc.).
 236:Drivers/STM32L0xx_HAL_Driver/Src/stm32l0xx_hal_flash_ramfunc.c ****   * @note   If a PGAERR is set during a Program memory half page write, the 
 237:Drivers/STM32L0xx_HAL_Driver/Src/stm32l0xx_hal_flash_ramfunc.c ****   *         complete write operation is aborted. Software should then reset the 
 238:Drivers/STM32L0xx_HAL_Driver/Src/stm32l0xx_hal_flash_ramfunc.c ****   *         FPRG and PROG/DATA bits and restart the write operation from the 
 239:Drivers/STM32L0xx_HAL_Driver/Src/stm32l0xx_hal_flash_ramfunc.c ****   *         beginning.
 240:Drivers/STM32L0xx_HAL_Driver/Src/stm32l0xx_hal_flash_ramfunc.c ****   * @retval HAL status
 241:Drivers/STM32L0xx_HAL_Driver/Src/stm32l0xx_hal_flash_ramfunc.c ****   */
 242:Drivers/STM32L0xx_HAL_Driver/Src/stm32l0xx_hal_flash_ramfunc.c **** __RAM_FUNC HAL_FLASHEx_ProgramParallelHalfPage(uint32_t Address1, uint32_t* pBuffer1, uint32_t Addr
 243:Drivers/STM32L0xx_HAL_Driver/Src/stm32l0xx_hal_flash_ramfunc.c **** {
 244:Drivers/STM32L0xx_HAL_Driver/Src/stm32l0xx_hal_flash_ramfunc.c ****   uint32_t count = 0U; 
 245:Drivers/STM32L0xx_HAL_Driver/Src/stm32l0xx_hal_flash_ramfunc.c ****   HAL_StatusTypeDef status = HAL_OK;
 246:Drivers/STM32L0xx_HAL_Driver/Src/stm32l0xx_hal_flash_ramfunc.c **** 
 247:Drivers/STM32L0xx_HAL_Driver/Src/stm32l0xx_hal_flash_ramfunc.c ****   /* Wait for last operation to be completed */
 248:Drivers/STM32L0xx_HAL_Driver/Src/stm32l0xx_hal_flash_ramfunc.c ****   status = FLASHRAM_WaitForLastOperation(FLASH_TIMEOUT_VALUE);
 249:Drivers/STM32L0xx_HAL_Driver/Src/stm32l0xx_hal_flash_ramfunc.c ****   
 250:Drivers/STM32L0xx_HAL_Driver/Src/stm32l0xx_hal_flash_ramfunc.c ****   if(status == HAL_OK)
 251:Drivers/STM32L0xx_HAL_Driver/Src/stm32l0xx_hal_flash_ramfunc.c ****   {
 252:Drivers/STM32L0xx_HAL_Driver/Src/stm32l0xx_hal_flash_ramfunc.c ****     /* Proceed to program the new half page */
 253:Drivers/STM32L0xx_HAL_Driver/Src/stm32l0xx_hal_flash_ramfunc.c ****     SET_BIT(FLASH->PECR, FLASH_PECR_PARALLBANK);
 254:Drivers/STM32L0xx_HAL_Driver/Src/stm32l0xx_hal_flash_ramfunc.c ****     SET_BIT(FLASH->PECR, FLASH_PECR_FPRG);
 255:Drivers/STM32L0xx_HAL_Driver/Src/stm32l0xx_hal_flash_ramfunc.c ****     SET_BIT(FLASH->PECR, FLASH_PECR_PROG);
 256:Drivers/STM32L0xx_HAL_Driver/Src/stm32l0xx_hal_flash_ramfunc.c **** 
 257:Drivers/STM32L0xx_HAL_Driver/Src/stm32l0xx_hal_flash_ramfunc.c ****     /* Wait for last operation to be completed */
 258:Drivers/STM32L0xx_HAL_Driver/Src/stm32l0xx_hal_flash_ramfunc.c ****     status = FLASHRAM_WaitForLastOperation(FLASH_TIMEOUT_VALUE);
 259:Drivers/STM32L0xx_HAL_Driver/Src/stm32l0xx_hal_flash_ramfunc.c ****     if(status == HAL_OK)
 260:Drivers/STM32L0xx_HAL_Driver/Src/stm32l0xx_hal_flash_ramfunc.c ****     {
 261:Drivers/STM32L0xx_HAL_Driver/Src/stm32l0xx_hal_flash_ramfunc.c ****       /* Disable all IRQs */
 262:Drivers/STM32L0xx_HAL_Driver/Src/stm32l0xx_hal_flash_ramfunc.c ****       __disable_irq();
ARM GAS  /tmp/ccYoxJDu.s 			page 6


 263:Drivers/STM32L0xx_HAL_Driver/Src/stm32l0xx_hal_flash_ramfunc.c **** 
 264:Drivers/STM32L0xx_HAL_Driver/Src/stm32l0xx_hal_flash_ramfunc.c ****       /* Write the first half page directly with 16 different words */
 265:Drivers/STM32L0xx_HAL_Driver/Src/stm32l0xx_hal_flash_ramfunc.c ****       while(count < 16U)
 266:Drivers/STM32L0xx_HAL_Driver/Src/stm32l0xx_hal_flash_ramfunc.c ****       {
 267:Drivers/STM32L0xx_HAL_Driver/Src/stm32l0xx_hal_flash_ramfunc.c ****         /* Address1 doesn't need to be increased */ 
 268:Drivers/STM32L0xx_HAL_Driver/Src/stm32l0xx_hal_flash_ramfunc.c ****         *(__IO uint32_t*) Address1 = *pBuffer1;
 269:Drivers/STM32L0xx_HAL_Driver/Src/stm32l0xx_hal_flash_ramfunc.c ****         pBuffer1++;
 270:Drivers/STM32L0xx_HAL_Driver/Src/stm32l0xx_hal_flash_ramfunc.c ****         count ++;  
 271:Drivers/STM32L0xx_HAL_Driver/Src/stm32l0xx_hal_flash_ramfunc.c ****       }
 272:Drivers/STM32L0xx_HAL_Driver/Src/stm32l0xx_hal_flash_ramfunc.c **** 
 273:Drivers/STM32L0xx_HAL_Driver/Src/stm32l0xx_hal_flash_ramfunc.c ****       /* Write the second half page directly with 16 different words */
 274:Drivers/STM32L0xx_HAL_Driver/Src/stm32l0xx_hal_flash_ramfunc.c ****       count = 0U;
 275:Drivers/STM32L0xx_HAL_Driver/Src/stm32l0xx_hal_flash_ramfunc.c ****       while(count < 16U)
 276:Drivers/STM32L0xx_HAL_Driver/Src/stm32l0xx_hal_flash_ramfunc.c ****       {
 277:Drivers/STM32L0xx_HAL_Driver/Src/stm32l0xx_hal_flash_ramfunc.c ****         /* Address2 doesn't need to be increased */ 
 278:Drivers/STM32L0xx_HAL_Driver/Src/stm32l0xx_hal_flash_ramfunc.c ****         *(__IO uint32_t*) Address2 = *pBuffer2;
 279:Drivers/STM32L0xx_HAL_Driver/Src/stm32l0xx_hal_flash_ramfunc.c ****         pBuffer2++;
 280:Drivers/STM32L0xx_HAL_Driver/Src/stm32l0xx_hal_flash_ramfunc.c ****         count ++;  
 281:Drivers/STM32L0xx_HAL_Driver/Src/stm32l0xx_hal_flash_ramfunc.c ****       }
 282:Drivers/STM32L0xx_HAL_Driver/Src/stm32l0xx_hal_flash_ramfunc.c **** 
 283:Drivers/STM32L0xx_HAL_Driver/Src/stm32l0xx_hal_flash_ramfunc.c ****       /* Enable IRQs */
 284:Drivers/STM32L0xx_HAL_Driver/Src/stm32l0xx_hal_flash_ramfunc.c ****       __enable_irq();
 285:Drivers/STM32L0xx_HAL_Driver/Src/stm32l0xx_hal_flash_ramfunc.c **** 
 286:Drivers/STM32L0xx_HAL_Driver/Src/stm32l0xx_hal_flash_ramfunc.c ****       /* Wait for last operation to be completed */
 287:Drivers/STM32L0xx_HAL_Driver/Src/stm32l0xx_hal_flash_ramfunc.c ****       status = FLASHRAM_WaitForLastOperation(FLASH_TIMEOUT_VALUE);
 288:Drivers/STM32L0xx_HAL_Driver/Src/stm32l0xx_hal_flash_ramfunc.c ****     }
 289:Drivers/STM32L0xx_HAL_Driver/Src/stm32l0xx_hal_flash_ramfunc.c **** 
 290:Drivers/STM32L0xx_HAL_Driver/Src/stm32l0xx_hal_flash_ramfunc.c ****     /* if the write operation is completed, disable the PROG, FPRG and PARALLBANK bits */
 291:Drivers/STM32L0xx_HAL_Driver/Src/stm32l0xx_hal_flash_ramfunc.c ****     CLEAR_BIT(FLASH->PECR, FLASH_PECR_PROG);
 292:Drivers/STM32L0xx_HAL_Driver/Src/stm32l0xx_hal_flash_ramfunc.c ****     CLEAR_BIT(FLASH->PECR, FLASH_PECR_FPRG);
 293:Drivers/STM32L0xx_HAL_Driver/Src/stm32l0xx_hal_flash_ramfunc.c ****     CLEAR_BIT(FLASH->PECR, FLASH_PECR_PARALLBANK);
 294:Drivers/STM32L0xx_HAL_Driver/Src/stm32l0xx_hal_flash_ramfunc.c ****   }
 295:Drivers/STM32L0xx_HAL_Driver/Src/stm32l0xx_hal_flash_ramfunc.c **** 
 296:Drivers/STM32L0xx_HAL_Driver/Src/stm32l0xx_hal_flash_ramfunc.c ****   /* Return the Write Status */
 297:Drivers/STM32L0xx_HAL_Driver/Src/stm32l0xx_hal_flash_ramfunc.c ****   return status;
 298:Drivers/STM32L0xx_HAL_Driver/Src/stm32l0xx_hal_flash_ramfunc.c **** }
 299:Drivers/STM32L0xx_HAL_Driver/Src/stm32l0xx_hal_flash_ramfunc.c **** #endif /* FLASH_PECR_PARALLBANK */
 300:Drivers/STM32L0xx_HAL_Driver/Src/stm32l0xx_hal_flash_ramfunc.c **** 
 301:Drivers/STM32L0xx_HAL_Driver/Src/stm32l0xx_hal_flash_ramfunc.c **** /**
 302:Drivers/STM32L0xx_HAL_Driver/Src/stm32l0xx_hal_flash_ramfunc.c ****   * @brief  Program a half page in program memory.
 303:Drivers/STM32L0xx_HAL_Driver/Src/stm32l0xx_hal_flash_ramfunc.c ****   * @param  Address: specifies the address to be written.
 304:Drivers/STM32L0xx_HAL_Driver/Src/stm32l0xx_hal_flash_ramfunc.c ****   * @param  pBuffer: pointer to the buffer  containing the data to be  written to 
 305:Drivers/STM32L0xx_HAL_Driver/Src/stm32l0xx_hal_flash_ramfunc.c ****   *         the half page.
 306:Drivers/STM32L0xx_HAL_Driver/Src/stm32l0xx_hal_flash_ramfunc.c ****   * @note   To correctly run this function, the @ref HAL_FLASH_Unlock() function
 307:Drivers/STM32L0xx_HAL_Driver/Src/stm32l0xx_hal_flash_ramfunc.c ****   *         must be called before.
 308:Drivers/STM32L0xx_HAL_Driver/Src/stm32l0xx_hal_flash_ramfunc.c ****   *         Call the @ref HAL_FLASH_Lock() to disable the flash memory access  
 309:Drivers/STM32L0xx_HAL_Driver/Src/stm32l0xx_hal_flash_ramfunc.c ****   *         (recommended to protect the FLASH memory against possible unwanted operation)
 310:Drivers/STM32L0xx_HAL_Driver/Src/stm32l0xx_hal_flash_ramfunc.c ****   * @note   Half page write is possible only from SRAM.
 311:Drivers/STM32L0xx_HAL_Driver/Src/stm32l0xx_hal_flash_ramfunc.c ****   * @note   A half page is written to the program memory only if the first 
 312:Drivers/STM32L0xx_HAL_Driver/Src/stm32l0xx_hal_flash_ramfunc.c ****   *         address to load is the start address of a half page (multiple of 64 
 313:Drivers/STM32L0xx_HAL_Driver/Src/stm32l0xx_hal_flash_ramfunc.c ****   *         bytes) and the 15 remaining words to load are in the same half page.
 314:Drivers/STM32L0xx_HAL_Driver/Src/stm32l0xx_hal_flash_ramfunc.c ****   * @note   During the Program memory half page write all read operations are 
 315:Drivers/STM32L0xx_HAL_Driver/Src/stm32l0xx_hal_flash_ramfunc.c ****   *         forbidden (this includes DMA read operations and debugger read 
 316:Drivers/STM32L0xx_HAL_Driver/Src/stm32l0xx_hal_flash_ramfunc.c ****   *         operations such as breakpoints, periodic updates, etc.).
 317:Drivers/STM32L0xx_HAL_Driver/Src/stm32l0xx_hal_flash_ramfunc.c ****   * @note   If a PGAERR is set during a Program memory half page write, the 
 318:Drivers/STM32L0xx_HAL_Driver/Src/stm32l0xx_hal_flash_ramfunc.c ****   *         complete write operation is aborted. Software should then reset the 
 319:Drivers/STM32L0xx_HAL_Driver/Src/stm32l0xx_hal_flash_ramfunc.c ****   *         FPRG and PROG/DATA bits and restart the write operation from the 
ARM GAS  /tmp/ccYoxJDu.s 			page 7


 320:Drivers/STM32L0xx_HAL_Driver/Src/stm32l0xx_hal_flash_ramfunc.c ****   *         beginning.
 321:Drivers/STM32L0xx_HAL_Driver/Src/stm32l0xx_hal_flash_ramfunc.c ****   * @retval HAL status
 322:Drivers/STM32L0xx_HAL_Driver/Src/stm32l0xx_hal_flash_ramfunc.c ****   */
 323:Drivers/STM32L0xx_HAL_Driver/Src/stm32l0xx_hal_flash_ramfunc.c **** __RAM_FUNC HAL_FLASHEx_HalfPageProgram(uint32_t Address, uint32_t* pBuffer)
 324:Drivers/STM32L0xx_HAL_Driver/Src/stm32l0xx_hal_flash_ramfunc.c **** {
 325:Drivers/STM32L0xx_HAL_Driver/Src/stm32l0xx_hal_flash_ramfunc.c ****   uint32_t count = 0U; 
 326:Drivers/STM32L0xx_HAL_Driver/Src/stm32l0xx_hal_flash_ramfunc.c ****   HAL_StatusTypeDef status = HAL_OK;
 327:Drivers/STM32L0xx_HAL_Driver/Src/stm32l0xx_hal_flash_ramfunc.c **** 
 328:Drivers/STM32L0xx_HAL_Driver/Src/stm32l0xx_hal_flash_ramfunc.c ****   /* Wait for last operation to be completed */
 329:Drivers/STM32L0xx_HAL_Driver/Src/stm32l0xx_hal_flash_ramfunc.c ****   status = FLASHRAM_WaitForLastOperation(FLASH_TIMEOUT_VALUE);
 330:Drivers/STM32L0xx_HAL_Driver/Src/stm32l0xx_hal_flash_ramfunc.c ****   
 331:Drivers/STM32L0xx_HAL_Driver/Src/stm32l0xx_hal_flash_ramfunc.c ****   if(status == HAL_OK)
 332:Drivers/STM32L0xx_HAL_Driver/Src/stm32l0xx_hal_flash_ramfunc.c ****   {
 333:Drivers/STM32L0xx_HAL_Driver/Src/stm32l0xx_hal_flash_ramfunc.c ****     /* Proceed to program the new half page */
 334:Drivers/STM32L0xx_HAL_Driver/Src/stm32l0xx_hal_flash_ramfunc.c ****     SET_BIT(FLASH->PECR, FLASH_PECR_FPRG);
 335:Drivers/STM32L0xx_HAL_Driver/Src/stm32l0xx_hal_flash_ramfunc.c ****     SET_BIT(FLASH->PECR, FLASH_PECR_PROG);
 336:Drivers/STM32L0xx_HAL_Driver/Src/stm32l0xx_hal_flash_ramfunc.c ****     
 337:Drivers/STM32L0xx_HAL_Driver/Src/stm32l0xx_hal_flash_ramfunc.c ****     /* Disable all IRQs */
 338:Drivers/STM32L0xx_HAL_Driver/Src/stm32l0xx_hal_flash_ramfunc.c ****     __disable_irq();
 339:Drivers/STM32L0xx_HAL_Driver/Src/stm32l0xx_hal_flash_ramfunc.c **** 
 340:Drivers/STM32L0xx_HAL_Driver/Src/stm32l0xx_hal_flash_ramfunc.c ****     /* Write one half page directly with 16 different words */
 341:Drivers/STM32L0xx_HAL_Driver/Src/stm32l0xx_hal_flash_ramfunc.c ****     while(count < 16U)
 342:Drivers/STM32L0xx_HAL_Driver/Src/stm32l0xx_hal_flash_ramfunc.c ****     {
 343:Drivers/STM32L0xx_HAL_Driver/Src/stm32l0xx_hal_flash_ramfunc.c ****       /* Address doesn't need to be increased */ 
 344:Drivers/STM32L0xx_HAL_Driver/Src/stm32l0xx_hal_flash_ramfunc.c ****       *(__IO uint32_t*) Address = *pBuffer;
 345:Drivers/STM32L0xx_HAL_Driver/Src/stm32l0xx_hal_flash_ramfunc.c ****       pBuffer++;
 346:Drivers/STM32L0xx_HAL_Driver/Src/stm32l0xx_hal_flash_ramfunc.c ****       count ++;  
 347:Drivers/STM32L0xx_HAL_Driver/Src/stm32l0xx_hal_flash_ramfunc.c ****     }
 348:Drivers/STM32L0xx_HAL_Driver/Src/stm32l0xx_hal_flash_ramfunc.c **** 
 349:Drivers/STM32L0xx_HAL_Driver/Src/stm32l0xx_hal_flash_ramfunc.c ****     /* Enable IRQs */
 350:Drivers/STM32L0xx_HAL_Driver/Src/stm32l0xx_hal_flash_ramfunc.c ****     __enable_irq();
 351:Drivers/STM32L0xx_HAL_Driver/Src/stm32l0xx_hal_flash_ramfunc.c **** 
 352:Drivers/STM32L0xx_HAL_Driver/Src/stm32l0xx_hal_flash_ramfunc.c ****     /* Wait for last operation to be completed */
 353:Drivers/STM32L0xx_HAL_Driver/Src/stm32l0xx_hal_flash_ramfunc.c ****     status = FLASHRAM_WaitForLastOperation(FLASH_TIMEOUT_VALUE);
 354:Drivers/STM32L0xx_HAL_Driver/Src/stm32l0xx_hal_flash_ramfunc.c ****  
 355:Drivers/STM32L0xx_HAL_Driver/Src/stm32l0xx_hal_flash_ramfunc.c ****     /* If the write operation is completed, disable the PROG and FPRG bits */
 356:Drivers/STM32L0xx_HAL_Driver/Src/stm32l0xx_hal_flash_ramfunc.c ****     CLEAR_BIT(FLASH->PECR, FLASH_PECR_PROG);
 357:Drivers/STM32L0xx_HAL_Driver/Src/stm32l0xx_hal_flash_ramfunc.c ****     CLEAR_BIT(FLASH->PECR, FLASH_PECR_FPRG);
 358:Drivers/STM32L0xx_HAL_Driver/Src/stm32l0xx_hal_flash_ramfunc.c ****   }
 359:Drivers/STM32L0xx_HAL_Driver/Src/stm32l0xx_hal_flash_ramfunc.c **** 
 360:Drivers/STM32L0xx_HAL_Driver/Src/stm32l0xx_hal_flash_ramfunc.c ****   /* Return the Write Status */
 361:Drivers/STM32L0xx_HAL_Driver/Src/stm32l0xx_hal_flash_ramfunc.c ****   return status;
 362:Drivers/STM32L0xx_HAL_Driver/Src/stm32l0xx_hal_flash_ramfunc.c **** }
 363:Drivers/STM32L0xx_HAL_Driver/Src/stm32l0xx_hal_flash_ramfunc.c **** 
 364:Drivers/STM32L0xx_HAL_Driver/Src/stm32l0xx_hal_flash_ramfunc.c **** /**
 365:Drivers/STM32L0xx_HAL_Driver/Src/stm32l0xx_hal_flash_ramfunc.c ****   * @}
 366:Drivers/STM32L0xx_HAL_Driver/Src/stm32l0xx_hal_flash_ramfunc.c ****   */
 367:Drivers/STM32L0xx_HAL_Driver/Src/stm32l0xx_hal_flash_ramfunc.c **** 
 368:Drivers/STM32L0xx_HAL_Driver/Src/stm32l0xx_hal_flash_ramfunc.c **** /** @defgroup FLASH_RAMFUNC_Exported_Functions_Group3 Peripheral errors functions 
 369:Drivers/STM32L0xx_HAL_Driver/Src/stm32l0xx_hal_flash_ramfunc.c ****  *  @brief    Peripheral errors functions 
 370:Drivers/STM32L0xx_HAL_Driver/Src/stm32l0xx_hal_flash_ramfunc.c ****  *
 371:Drivers/STM32L0xx_HAL_Driver/Src/stm32l0xx_hal_flash_ramfunc.c **** @verbatim   
 372:Drivers/STM32L0xx_HAL_Driver/Src/stm32l0xx_hal_flash_ramfunc.c ****  ===============================================================================
 373:Drivers/STM32L0xx_HAL_Driver/Src/stm32l0xx_hal_flash_ramfunc.c ****                       ##### Peripheral errors functions #####
 374:Drivers/STM32L0xx_HAL_Driver/Src/stm32l0xx_hal_flash_ramfunc.c ****  ===============================================================================  
 375:Drivers/STM32L0xx_HAL_Driver/Src/stm32l0xx_hal_flash_ramfunc.c ****     [..]
 376:Drivers/STM32L0xx_HAL_Driver/Src/stm32l0xx_hal_flash_ramfunc.c ****     This subsection permit to get in run-time errors of  the FLASH peripheral.
ARM GAS  /tmp/ccYoxJDu.s 			page 8


 377:Drivers/STM32L0xx_HAL_Driver/Src/stm32l0xx_hal_flash_ramfunc.c **** 
 378:Drivers/STM32L0xx_HAL_Driver/Src/stm32l0xx_hal_flash_ramfunc.c **** @endverbatim
 379:Drivers/STM32L0xx_HAL_Driver/Src/stm32l0xx_hal_flash_ramfunc.c ****   * @{
 380:Drivers/STM32L0xx_HAL_Driver/Src/stm32l0xx_hal_flash_ramfunc.c ****   */
 381:Drivers/STM32L0xx_HAL_Driver/Src/stm32l0xx_hal_flash_ramfunc.c **** 
 382:Drivers/STM32L0xx_HAL_Driver/Src/stm32l0xx_hal_flash_ramfunc.c **** /**
 383:Drivers/STM32L0xx_HAL_Driver/Src/stm32l0xx_hal_flash_ramfunc.c ****   * @brief  Get the specific FLASH errors flag.
 384:Drivers/STM32L0xx_HAL_Driver/Src/stm32l0xx_hal_flash_ramfunc.c ****   * @param  Error pointer is the error value. It can be a mixed of:
 385:Drivers/STM32L0xx_HAL_Driver/Src/stm32l0xx_hal_flash_ramfunc.c ****   *            @arg @ref HAL_FLASH_ERROR_RD      FLASH Read Protection error flag (PCROP)
 386:Drivers/STM32L0xx_HAL_Driver/Src/stm32l0xx_hal_flash_ramfunc.c ****   *            @arg @ref HAL_FLASH_ERROR_SIZE    FLASH Programming Parallelism error flag  
 387:Drivers/STM32L0xx_HAL_Driver/Src/stm32l0xx_hal_flash_ramfunc.c ****   *            @arg @ref HAL_FLASH_ERROR_PGA     FLASH Programming Alignment error flag
 388:Drivers/STM32L0xx_HAL_Driver/Src/stm32l0xx_hal_flash_ramfunc.c ****   *            @arg @ref HAL_FLASH_ERROR_WRP     FLASH Write protected error flag
 389:Drivers/STM32L0xx_HAL_Driver/Src/stm32l0xx_hal_flash_ramfunc.c ****   *            @arg @ref HAL_FLASH_ERROR_OPTV    FLASH Option valid error flag 
 390:Drivers/STM32L0xx_HAL_Driver/Src/stm32l0xx_hal_flash_ramfunc.c ****   *            @arg @ref HAL_FLASH_ERROR_FWWERR  FLASH Write or Erase operation aborted
 391:Drivers/STM32L0xx_HAL_Driver/Src/stm32l0xx_hal_flash_ramfunc.c ****   *            @arg @ref HAL_FLASH_ERROR_NOTZERO FLASH Write operation is done in a not-erased regi
 392:Drivers/STM32L0xx_HAL_Driver/Src/stm32l0xx_hal_flash_ramfunc.c ****   * @retval HAL Status
 393:Drivers/STM32L0xx_HAL_Driver/Src/stm32l0xx_hal_flash_ramfunc.c ****   */
 394:Drivers/STM32L0xx_HAL_Driver/Src/stm32l0xx_hal_flash_ramfunc.c **** __RAM_FUNC HAL_FLASHEx_GetError(uint32_t * Error)
 395:Drivers/STM32L0xx_HAL_Driver/Src/stm32l0xx_hal_flash_ramfunc.c **** { 
 396:Drivers/STM32L0xx_HAL_Driver/Src/stm32l0xx_hal_flash_ramfunc.c ****   *Error = pFlash.ErrorCode;
 397:Drivers/STM32L0xx_HAL_Driver/Src/stm32l0xx_hal_flash_ramfunc.c ****   return HAL_OK;  
 398:Drivers/STM32L0xx_HAL_Driver/Src/stm32l0xx_hal_flash_ramfunc.c **** }
 399:Drivers/STM32L0xx_HAL_Driver/Src/stm32l0xx_hal_flash_ramfunc.c **** 
 400:Drivers/STM32L0xx_HAL_Driver/Src/stm32l0xx_hal_flash_ramfunc.c **** /**
 401:Drivers/STM32L0xx_HAL_Driver/Src/stm32l0xx_hal_flash_ramfunc.c ****   * @}
 402:Drivers/STM32L0xx_HAL_Driver/Src/stm32l0xx_hal_flash_ramfunc.c ****   */
 403:Drivers/STM32L0xx_HAL_Driver/Src/stm32l0xx_hal_flash_ramfunc.c **** 
 404:Drivers/STM32L0xx_HAL_Driver/Src/stm32l0xx_hal_flash_ramfunc.c **** /**
 405:Drivers/STM32L0xx_HAL_Driver/Src/stm32l0xx_hal_flash_ramfunc.c ****   * @}
 406:Drivers/STM32L0xx_HAL_Driver/Src/stm32l0xx_hal_flash_ramfunc.c ****   */
 407:Drivers/STM32L0xx_HAL_Driver/Src/stm32l0xx_hal_flash_ramfunc.c **** 
 408:Drivers/STM32L0xx_HAL_Driver/Src/stm32l0xx_hal_flash_ramfunc.c **** /** @addtogroup FLASH_RAMFUNC_Private_Functions
 409:Drivers/STM32L0xx_HAL_Driver/Src/stm32l0xx_hal_flash_ramfunc.c ****   * @{
 410:Drivers/STM32L0xx_HAL_Driver/Src/stm32l0xx_hal_flash_ramfunc.c ****   */ 
 411:Drivers/STM32L0xx_HAL_Driver/Src/stm32l0xx_hal_flash_ramfunc.c **** 
 412:Drivers/STM32L0xx_HAL_Driver/Src/stm32l0xx_hal_flash_ramfunc.c **** /**
 413:Drivers/STM32L0xx_HAL_Driver/Src/stm32l0xx_hal_flash_ramfunc.c ****   * @brief  Set the specific FLASH error flag.
 414:Drivers/STM32L0xx_HAL_Driver/Src/stm32l0xx_hal_flash_ramfunc.c ****   * @retval HAL Status
 415:Drivers/STM32L0xx_HAL_Driver/Src/stm32l0xx_hal_flash_ramfunc.c ****   */
 416:Drivers/STM32L0xx_HAL_Driver/Src/stm32l0xx_hal_flash_ramfunc.c **** static __RAM_FUNC FLASHRAM_SetErrorCode(void)
 417:Drivers/STM32L0xx_HAL_Driver/Src/stm32l0xx_hal_flash_ramfunc.c **** {
  25              		.loc 1 417 0
  26              		.cfi_startproc
  27              	.LVL0:
 418:Drivers/STM32L0xx_HAL_Driver/Src/stm32l0xx_hal_flash_ramfunc.c ****   uint32_t flags = 0;
 419:Drivers/STM32L0xx_HAL_Driver/Src/stm32l0xx_hal_flash_ramfunc.c ****   
 420:Drivers/STM32L0xx_HAL_Driver/Src/stm32l0xx_hal_flash_ramfunc.c ****   if(__HAL_FLASH_GET_FLAG(FLASH_FLAG_WRPERR))
  28              		.loc 1 420 0
  29 0000 2B4B     		ldr	r3, .L10
  30 0002 9B69     		ldr	r3, [r3, #24]
  31 0004 D905     		lsl	r1, r3, #23
  32 0006 07D5     		bpl	.L9
 421:Drivers/STM32L0xx_HAL_Driver/Src/stm32l0xx_hal_flash_ramfunc.c ****   {
 422:Drivers/STM32L0xx_HAL_Driver/Src/stm32l0xx_hal_flash_ramfunc.c ****     pFlash.ErrorCode |= HAL_FLASH_ERROR_WRP;
  33              		.loc 1 422 0
  34 0008 2A4B     		ldr	r3, .L10+4
  35 000a 5969     		ldr	r1, [r3, #20]
ARM GAS  /tmp/ccYoxJDu.s 			page 9


  36 000c 0222     		mov	r2, #2
  37 000e 0A43     		orr	r2, r1
  38 0010 5A61     		str	r2, [r3, #20]
  39              	.LVL1:
 423:Drivers/STM32L0xx_HAL_Driver/Src/stm32l0xx_hal_flash_ramfunc.c ****     flags |= FLASH_FLAG_WRPERR;
  40              		.loc 1 423 0
  41 0012 8023     		mov	r3, #128
  42 0014 5B00     		lsl	r3, r3, #1
  43 0016 00E0     		b	.L2
  44              	.LVL2:
  45              	.L9:
 418:Drivers/STM32L0xx_HAL_Driver/Src/stm32l0xx_hal_flash_ramfunc.c ****   uint32_t flags = 0;
  46              		.loc 1 418 0
  47 0018 0023     		mov	r3, #0
  48              	.LVL3:
  49              	.L2:
 424:Drivers/STM32L0xx_HAL_Driver/Src/stm32l0xx_hal_flash_ramfunc.c ****   }
 425:Drivers/STM32L0xx_HAL_Driver/Src/stm32l0xx_hal_flash_ramfunc.c ****   if(__HAL_FLASH_GET_FLAG(FLASH_FLAG_PGAERR))
  50              		.loc 1 425 0
  51 001a 254A     		ldr	r2, .L10
  52 001c 9269     		ldr	r2, [r2, #24]
  53 001e 9105     		lsl	r1, r2, #22
  54 0020 07D5     		bpl	.L3
 426:Drivers/STM32L0xx_HAL_Driver/Src/stm32l0xx_hal_flash_ramfunc.c ****   {
 427:Drivers/STM32L0xx_HAL_Driver/Src/stm32l0xx_hal_flash_ramfunc.c ****     pFlash.ErrorCode |= HAL_FLASH_ERROR_PGA;
  55              		.loc 1 427 0
  56 0022 244A     		ldr	r2, .L10+4
  57 0024 5069     		ldr	r0, [r2, #20]
  58 0026 0121     		mov	r1, #1
  59 0028 0143     		orr	r1, r0
  60 002a 5161     		str	r1, [r2, #20]
 428:Drivers/STM32L0xx_HAL_Driver/Src/stm32l0xx_hal_flash_ramfunc.c ****     flags |= FLASH_FLAG_PGAERR;
  61              		.loc 1 428 0
  62 002c 8022     		mov	r2, #128
  63 002e 9200     		lsl	r2, r2, #2
  64 0030 1343     		orr	r3, r2
  65              	.LVL4:
  66              	.L3:
 429:Drivers/STM32L0xx_HAL_Driver/Src/stm32l0xx_hal_flash_ramfunc.c ****   }
 430:Drivers/STM32L0xx_HAL_Driver/Src/stm32l0xx_hal_flash_ramfunc.c ****   if(__HAL_FLASH_GET_FLAG(FLASH_FLAG_SIZERR))
  67              		.loc 1 430 0
  68 0032 1F4A     		ldr	r2, .L10
  69 0034 9269     		ldr	r2, [r2, #24]
  70 0036 5105     		lsl	r1, r2, #21
  71 0038 07D5     		bpl	.L4
 431:Drivers/STM32L0xx_HAL_Driver/Src/stm32l0xx_hal_flash_ramfunc.c ****   { 
 432:Drivers/STM32L0xx_HAL_Driver/Src/stm32l0xx_hal_flash_ramfunc.c ****     pFlash.ErrorCode |= HAL_FLASH_ERROR_SIZE;
  72              		.loc 1 432 0
  73 003a 1E4A     		ldr	r2, .L10+4
  74 003c 5069     		ldr	r0, [r2, #20]
  75 003e 0821     		mov	r1, #8
  76 0040 0143     		orr	r1, r0
  77 0042 5161     		str	r1, [r2, #20]
 433:Drivers/STM32L0xx_HAL_Driver/Src/stm32l0xx_hal_flash_ramfunc.c ****     flags |= FLASH_FLAG_SIZERR;
  78              		.loc 1 433 0
  79 0044 8022     		mov	r2, #128
  80 0046 D200     		lsl	r2, r2, #3
ARM GAS  /tmp/ccYoxJDu.s 			page 10


  81 0048 1343     		orr	r3, r2
  82              	.LVL5:
  83              	.L4:
 434:Drivers/STM32L0xx_HAL_Driver/Src/stm32l0xx_hal_flash_ramfunc.c ****   }
 435:Drivers/STM32L0xx_HAL_Driver/Src/stm32l0xx_hal_flash_ramfunc.c ****   if(__HAL_FLASH_GET_FLAG(FLASH_FLAG_OPTVERR))
  84              		.loc 1 435 0
  85 004a 194A     		ldr	r2, .L10
  86 004c 9269     		ldr	r2, [r2, #24]
  87 004e 1105     		lsl	r1, r2, #20
  88 0050 07D5     		bpl	.L5
 436:Drivers/STM32L0xx_HAL_Driver/Src/stm32l0xx_hal_flash_ramfunc.c ****   {
 437:Drivers/STM32L0xx_HAL_Driver/Src/stm32l0xx_hal_flash_ramfunc.c ****     /* WARNING : On the first cut of STM32L031xx and STM32L041xx devices,
 438:Drivers/STM32L0xx_HAL_Driver/Src/stm32l0xx_hal_flash_ramfunc.c ****      *           (RefID = 0x1000) the FLASH_FLAG_OPTVERR bit was not behaving
 439:Drivers/STM32L0xx_HAL_Driver/Src/stm32l0xx_hal_flash_ramfunc.c ****      *           as expected. If the user run an application using the first
 440:Drivers/STM32L0xx_HAL_Driver/Src/stm32l0xx_hal_flash_ramfunc.c ****      *           cut of the STM32L031xx device or the first cut of the STM32L041xx
 441:Drivers/STM32L0xx_HAL_Driver/Src/stm32l0xx_hal_flash_ramfunc.c ****      *           device, this error should be ignored. The revId of the device
 442:Drivers/STM32L0xx_HAL_Driver/Src/stm32l0xx_hal_flash_ramfunc.c ****      *           can be retrieved via the HAL_GetREVID() function.
 443:Drivers/STM32L0xx_HAL_Driver/Src/stm32l0xx_hal_flash_ramfunc.c ****      *
 444:Drivers/STM32L0xx_HAL_Driver/Src/stm32l0xx_hal_flash_ramfunc.c ****      */
 445:Drivers/STM32L0xx_HAL_Driver/Src/stm32l0xx_hal_flash_ramfunc.c ****     pFlash.ErrorCode |= HAL_FLASH_ERROR_OPTV;
  89              		.loc 1 445 0
  90 0052 184A     		ldr	r2, .L10+4
  91 0054 5069     		ldr	r0, [r2, #20]
  92 0056 0421     		mov	r1, #4
  93 0058 0143     		orr	r1, r0
  94 005a 5161     		str	r1, [r2, #20]
 446:Drivers/STM32L0xx_HAL_Driver/Src/stm32l0xx_hal_flash_ramfunc.c ****     flags |= FLASH_FLAG_OPTVERR;
  95              		.loc 1 446 0
  96 005c 8022     		mov	r2, #128
  97 005e 1201     		lsl	r2, r2, #4
  98 0060 1343     		orr	r3, r2
  99              	.LVL6:
 100              	.L5:
 447:Drivers/STM32L0xx_HAL_Driver/Src/stm32l0xx_hal_flash_ramfunc.c ****   }
 448:Drivers/STM32L0xx_HAL_Driver/Src/stm32l0xx_hal_flash_ramfunc.c **** 
 449:Drivers/STM32L0xx_HAL_Driver/Src/stm32l0xx_hal_flash_ramfunc.c ****   if(__HAL_FLASH_GET_FLAG(FLASH_FLAG_RDERR))
 101              		.loc 1 449 0
 102 0062 134A     		ldr	r2, .L10
 103 0064 9269     		ldr	r2, [r2, #24]
 104 0066 9104     		lsl	r1, r2, #18
 105 0068 07D5     		bpl	.L6
 450:Drivers/STM32L0xx_HAL_Driver/Src/stm32l0xx_hal_flash_ramfunc.c ****   {
 451:Drivers/STM32L0xx_HAL_Driver/Src/stm32l0xx_hal_flash_ramfunc.c ****     pFlash.ErrorCode |= HAL_FLASH_ERROR_RD;
 106              		.loc 1 451 0
 107 006a 124A     		ldr	r2, .L10+4
 108 006c 5069     		ldr	r0, [r2, #20]
 109 006e 1021     		mov	r1, #16
 110 0070 0143     		orr	r1, r0
 111 0072 5161     		str	r1, [r2, #20]
 452:Drivers/STM32L0xx_HAL_Driver/Src/stm32l0xx_hal_flash_ramfunc.c ****     flags |= FLASH_FLAG_RDERR;
 112              		.loc 1 452 0
 113 0074 8022     		mov	r2, #128
 114 0076 9201     		lsl	r2, r2, #6
 115 0078 1343     		orr	r3, r2
 116              	.LVL7:
 117              	.L6:
 453:Drivers/STM32L0xx_HAL_Driver/Src/stm32l0xx_hal_flash_ramfunc.c ****   }
ARM GAS  /tmp/ccYoxJDu.s 			page 11


 454:Drivers/STM32L0xx_HAL_Driver/Src/stm32l0xx_hal_flash_ramfunc.c ****   if(__HAL_FLASH_GET_FLAG(FLASH_FLAG_FWWERR))
 118              		.loc 1 454 0
 119 007a 0D4A     		ldr	r2, .L10
 120 007c 9269     		ldr	r2, [r2, #24]
 121 007e 9103     		lsl	r1, r2, #14
 122 0080 05D5     		bpl	.L7
 455:Drivers/STM32L0xx_HAL_Driver/Src/stm32l0xx_hal_flash_ramfunc.c ****   { 
 456:Drivers/STM32L0xx_HAL_Driver/Src/stm32l0xx_hal_flash_ramfunc.c ****     pFlash.ErrorCode |= HAL_FLASH_ERROR_FWWERR;
 123              		.loc 1 456 0
 124 0082 0C49     		ldr	r1, .L10+4
 125 0084 4869     		ldr	r0, [r1, #20]
 126 0086 2022     		mov	r2, #32
 127 0088 1043     		orr	r0, r2
 128 008a 4861     		str	r0, [r1, #20]
 457:Drivers/STM32L0xx_HAL_Driver/Src/stm32l0xx_hal_flash_ramfunc.c ****     flags |= HAL_FLASH_ERROR_FWWERR;
 129              		.loc 1 457 0
 130 008c 1343     		orr	r3, r2
 131              	.LVL8:
 132              	.L7:
 458:Drivers/STM32L0xx_HAL_Driver/Src/stm32l0xx_hal_flash_ramfunc.c ****   }
 459:Drivers/STM32L0xx_HAL_Driver/Src/stm32l0xx_hal_flash_ramfunc.c ****   if(__HAL_FLASH_GET_FLAG(FLASH_FLAG_NOTZEROERR))
 133              		.loc 1 459 0
 134 008e 084A     		ldr	r2, .L10
 135 0090 9269     		ldr	r2, [r2, #24]
 136 0092 D103     		lsl	r1, r2, #15
 137 0094 07D5     		bpl	.L8
 460:Drivers/STM32L0xx_HAL_Driver/Src/stm32l0xx_hal_flash_ramfunc.c ****   { 
 461:Drivers/STM32L0xx_HAL_Driver/Src/stm32l0xx_hal_flash_ramfunc.c ****     pFlash.ErrorCode |= HAL_FLASH_ERROR_NOTZERO;
 138              		.loc 1 461 0
 139 0096 074A     		ldr	r2, .L10+4
 140 0098 5069     		ldr	r0, [r2, #20]
 141 009a 4021     		mov	r1, #64
 142 009c 0143     		orr	r1, r0
 143 009e 5161     		str	r1, [r2, #20]
 462:Drivers/STM32L0xx_HAL_Driver/Src/stm32l0xx_hal_flash_ramfunc.c ****     flags |= FLASH_FLAG_NOTZEROERR;
 144              		.loc 1 462 0
 145 00a0 8022     		mov	r2, #128
 146 00a2 5202     		lsl	r2, r2, #9
 147 00a4 1343     		orr	r3, r2
 148              	.LVL9:
 149              	.L8:
 463:Drivers/STM32L0xx_HAL_Driver/Src/stm32l0xx_hal_flash_ramfunc.c ****   }
 464:Drivers/STM32L0xx_HAL_Driver/Src/stm32l0xx_hal_flash_ramfunc.c **** 
 465:Drivers/STM32L0xx_HAL_Driver/Src/stm32l0xx_hal_flash_ramfunc.c ****   /* Clear FLASH error pending bits */
 466:Drivers/STM32L0xx_HAL_Driver/Src/stm32l0xx_hal_flash_ramfunc.c ****   __HAL_FLASH_CLEAR_FLAG(flags);
 150              		.loc 1 466 0
 151 00a6 024A     		ldr	r2, .L10
 152 00a8 9361     		str	r3, [r2, #24]
 467:Drivers/STM32L0xx_HAL_Driver/Src/stm32l0xx_hal_flash_ramfunc.c **** 
 468:Drivers/STM32L0xx_HAL_Driver/Src/stm32l0xx_hal_flash_ramfunc.c ****   return HAL_OK;
 469:Drivers/STM32L0xx_HAL_Driver/Src/stm32l0xx_hal_flash_ramfunc.c **** }  
 153              		.loc 1 469 0
 154 00aa 0020     		mov	r0, #0
 155              		@ sp needed
 156 00ac 7047     		bx	lr
 157              	.L11:
 158 00ae C046     		.align	2
ARM GAS  /tmp/ccYoxJDu.s 			page 12


 159              	.L10:
 160 00b0 00200240 		.word	1073881088
 161 00b4 00000000 		.word	pFlash
 162              		.cfi_endproc
 163              	.LFE42:
 165              		.align	2
 166              		.code	16
 167              		.thumb_func
 169              	FLASHRAM_WaitForLastOperation:
 170              	.LFB43:
 470:Drivers/STM32L0xx_HAL_Driver/Src/stm32l0xx_hal_flash_ramfunc.c **** 
 471:Drivers/STM32L0xx_HAL_Driver/Src/stm32l0xx_hal_flash_ramfunc.c **** /**
 472:Drivers/STM32L0xx_HAL_Driver/Src/stm32l0xx_hal_flash_ramfunc.c ****   * @brief  Wait for a FLASH operation to complete.
 473:Drivers/STM32L0xx_HAL_Driver/Src/stm32l0xx_hal_flash_ramfunc.c ****   * @param  Timeout: maximum flash operationtimeout
 474:Drivers/STM32L0xx_HAL_Driver/Src/stm32l0xx_hal_flash_ramfunc.c ****   * @retval HAL status
 475:Drivers/STM32L0xx_HAL_Driver/Src/stm32l0xx_hal_flash_ramfunc.c ****   */
 476:Drivers/STM32L0xx_HAL_Driver/Src/stm32l0xx_hal_flash_ramfunc.c **** static __RAM_FUNC  FLASHRAM_WaitForLastOperation(uint32_t Timeout)
 477:Drivers/STM32L0xx_HAL_Driver/Src/stm32l0xx_hal_flash_ramfunc.c **** { 
 171              		.loc 1 477 0
 172              		.cfi_startproc
 173              	.LVL10:
 174 00b8 08B5     		push	{r3, lr}
 175              	.LCFI0:
 176              		.cfi_def_cfa_offset 8
 177              		.cfi_offset 3, -8
 178              		.cfi_offset 14, -4
 478:Drivers/STM32L0xx_HAL_Driver/Src/stm32l0xx_hal_flash_ramfunc.c ****     /* Wait for the FLASH operation to complete by polling on BUSY flag to be reset.
 479:Drivers/STM32L0xx_HAL_Driver/Src/stm32l0xx_hal_flash_ramfunc.c ****        Even if the FLASH operation fails, the BUSY flag will be reset and an error
 480:Drivers/STM32L0xx_HAL_Driver/Src/stm32l0xx_hal_flash_ramfunc.c ****        flag will be set */
 481:Drivers/STM32L0xx_HAL_Driver/Src/stm32l0xx_hal_flash_ramfunc.c ****        
 482:Drivers/STM32L0xx_HAL_Driver/Src/stm32l0xx_hal_flash_ramfunc.c ****     while(__HAL_FLASH_GET_FLAG(FLASH_FLAG_BSY) && (Timeout != 0x00U)) 
 179              		.loc 1 482 0
 180 00ba 1B49     		ldr	r1, .L21
 181 00bc 0122     		mov	r2, #1
 182 00be 00E0     		b	.L13
 183              	.L15:
 483:Drivers/STM32L0xx_HAL_Driver/Src/stm32l0xx_hal_flash_ramfunc.c ****     { 
 484:Drivers/STM32L0xx_HAL_Driver/Src/stm32l0xx_hal_flash_ramfunc.c ****       Timeout--;
 184              		.loc 1 484 0
 185 00c0 0138     		sub	r0, r0, #1
 186              	.LVL11:
 187              	.L13:
 482:Drivers/STM32L0xx_HAL_Driver/Src/stm32l0xx_hal_flash_ramfunc.c ****     while(__HAL_FLASH_GET_FLAG(FLASH_FLAG_BSY) && (Timeout != 0x00U)) 
 188              		.loc 1 482 0 discriminator 1
 189 00c2 8B69     		ldr	r3, [r1, #24]
 190 00c4 1A42     		tst	r2, r3
 191 00c6 01D0     		beq	.L14
 482:Drivers/STM32L0xx_HAL_Driver/Src/stm32l0xx_hal_flash_ramfunc.c ****     while(__HAL_FLASH_GET_FLAG(FLASH_FLAG_BSY) && (Timeout != 0x00U)) 
 192              		.loc 1 482 0 is_stmt 0 discriminator 2
 193 00c8 0028     		cmp	r0, #0
 194 00ca F9D1     		bne	.L15
 195              	.L14:
 485:Drivers/STM32L0xx_HAL_Driver/Src/stm32l0xx_hal_flash_ramfunc.c ****     }
 486:Drivers/STM32L0xx_HAL_Driver/Src/stm32l0xx_hal_flash_ramfunc.c ****     
 487:Drivers/STM32L0xx_HAL_Driver/Src/stm32l0xx_hal_flash_ramfunc.c ****     if(Timeout == 0x00U)
 196              		.loc 1 487 0 is_stmt 1
 197 00cc 0028     		cmp	r0, #0
ARM GAS  /tmp/ccYoxJDu.s 			page 13


 198 00ce 26D0     		beq	.L19
 488:Drivers/STM32L0xx_HAL_Driver/Src/stm32l0xx_hal_flash_ramfunc.c ****     {
 489:Drivers/STM32L0xx_HAL_Driver/Src/stm32l0xx_hal_flash_ramfunc.c ****       return HAL_TIMEOUT;
 490:Drivers/STM32L0xx_HAL_Driver/Src/stm32l0xx_hal_flash_ramfunc.c ****     }
 491:Drivers/STM32L0xx_HAL_Driver/Src/stm32l0xx_hal_flash_ramfunc.c ****     
 492:Drivers/STM32L0xx_HAL_Driver/Src/stm32l0xx_hal_flash_ramfunc.c ****   /* Check FLASH End of Operation flag  */
 493:Drivers/STM32L0xx_HAL_Driver/Src/stm32l0xx_hal_flash_ramfunc.c ****   if (__HAL_FLASH_GET_FLAG(FLASH_FLAG_EOP))
 199              		.loc 1 493 0
 200 00d0 154B     		ldr	r3, .L21
 201 00d2 9B69     		ldr	r3, [r3, #24]
 202 00d4 9A07     		lsl	r2, r3, #30
 203 00d6 02D5     		bpl	.L17
 494:Drivers/STM32L0xx_HAL_Driver/Src/stm32l0xx_hal_flash_ramfunc.c ****   {
 495:Drivers/STM32L0xx_HAL_Driver/Src/stm32l0xx_hal_flash_ramfunc.c ****     /* Clear FLASH End of Operation pending bit */
 496:Drivers/STM32L0xx_HAL_Driver/Src/stm32l0xx_hal_flash_ramfunc.c ****     __HAL_FLASH_CLEAR_FLAG(FLASH_FLAG_EOP);
 204              		.loc 1 496 0
 205 00d8 0222     		mov	r2, #2
 206 00da 134B     		ldr	r3, .L21
 207 00dc 9A61     		str	r2, [r3, #24]
 208              	.L17:
 497:Drivers/STM32L0xx_HAL_Driver/Src/stm32l0xx_hal_flash_ramfunc.c ****   }
 498:Drivers/STM32L0xx_HAL_Driver/Src/stm32l0xx_hal_flash_ramfunc.c ****   
 499:Drivers/STM32L0xx_HAL_Driver/Src/stm32l0xx_hal_flash_ramfunc.c ****   if( __HAL_FLASH_GET_FLAG(FLASH_FLAG_WRPERR)     || 
 209              		.loc 1 499 0
 210 00de 124B     		ldr	r3, .L21
 211 00e0 9B69     		ldr	r3, [r3, #24]
 212 00e2 DA05     		lsl	r2, r3, #23
 213 00e4 17D4     		bmi	.L18
 500:Drivers/STM32L0xx_HAL_Driver/Src/stm32l0xx_hal_flash_ramfunc.c ****       __HAL_FLASH_GET_FLAG(FLASH_FLAG_PGAERR)     || 
 214              		.loc 1 500 0 discriminator 1
 215 00e6 104B     		ldr	r3, .L21
 216 00e8 9B69     		ldr	r3, [r3, #24]
 499:Drivers/STM32L0xx_HAL_Driver/Src/stm32l0xx_hal_flash_ramfunc.c ****   if( __HAL_FLASH_GET_FLAG(FLASH_FLAG_WRPERR)     || 
 217              		.loc 1 499 0 discriminator 1
 218 00ea 9A05     		lsl	r2, r3, #22
 219 00ec 13D4     		bmi	.L18
 501:Drivers/STM32L0xx_HAL_Driver/Src/stm32l0xx_hal_flash_ramfunc.c ****       __HAL_FLASH_GET_FLAG(FLASH_FLAG_SIZERR)     || 
 220              		.loc 1 501 0
 221 00ee 0E4B     		ldr	r3, .L21
 222 00f0 9B69     		ldr	r3, [r3, #24]
 500:Drivers/STM32L0xx_HAL_Driver/Src/stm32l0xx_hal_flash_ramfunc.c ****       __HAL_FLASH_GET_FLAG(FLASH_FLAG_PGAERR)     || 
 223              		.loc 1 500 0
 224 00f2 5A05     		lsl	r2, r3, #21
 225 00f4 0FD4     		bmi	.L18
 502:Drivers/STM32L0xx_HAL_Driver/Src/stm32l0xx_hal_flash_ramfunc.c ****       __HAL_FLASH_GET_FLAG(FLASH_FLAG_OPTVERR)    || 
 226              		.loc 1 502 0
 227 00f6 0C4B     		ldr	r3, .L21
 228 00f8 9B69     		ldr	r3, [r3, #24]
 501:Drivers/STM32L0xx_HAL_Driver/Src/stm32l0xx_hal_flash_ramfunc.c ****       __HAL_FLASH_GET_FLAG(FLASH_FLAG_SIZERR)     || 
 229              		.loc 1 501 0
 230 00fa 1A05     		lsl	r2, r3, #20
 231 00fc 0BD4     		bmi	.L18
 503:Drivers/STM32L0xx_HAL_Driver/Src/stm32l0xx_hal_flash_ramfunc.c ****       __HAL_FLASH_GET_FLAG(FLASH_FLAG_RDERR)      || 
 232              		.loc 1 503 0
 233 00fe 0A4B     		ldr	r3, .L21
 234 0100 9B69     		ldr	r3, [r3, #24]
 502:Drivers/STM32L0xx_HAL_Driver/Src/stm32l0xx_hal_flash_ramfunc.c ****       __HAL_FLASH_GET_FLAG(FLASH_FLAG_OPTVERR)    || 
ARM GAS  /tmp/ccYoxJDu.s 			page 14


 235              		.loc 1 502 0
 236 0102 9A04     		lsl	r2, r3, #18
 237 0104 07D4     		bmi	.L18
 504:Drivers/STM32L0xx_HAL_Driver/Src/stm32l0xx_hal_flash_ramfunc.c ****       __HAL_FLASH_GET_FLAG(FLASH_FLAG_FWWERR)     || 
 238              		.loc 1 504 0
 239 0106 084B     		ldr	r3, .L21
 240 0108 9B69     		ldr	r3, [r3, #24]
 503:Drivers/STM32L0xx_HAL_Driver/Src/stm32l0xx_hal_flash_ramfunc.c ****       __HAL_FLASH_GET_FLAG(FLASH_FLAG_RDERR)      || 
 241              		.loc 1 503 0
 242 010a 9A03     		lsl	r2, r3, #14
 243 010c 03D4     		bmi	.L18
 505:Drivers/STM32L0xx_HAL_Driver/Src/stm32l0xx_hal_flash_ramfunc.c ****       __HAL_FLASH_GET_FLAG(FLASH_FLAG_NOTZEROERR) )
 244              		.loc 1 505 0
 245 010e 064B     		ldr	r3, .L21
 246 0110 9B69     		ldr	r3, [r3, #24]
 504:Drivers/STM32L0xx_HAL_Driver/Src/stm32l0xx_hal_flash_ramfunc.c ****       __HAL_FLASH_GET_FLAG(FLASH_FLAG_FWWERR)     || 
 247              		.loc 1 504 0
 248 0112 DA03     		lsl	r2, r3, #15
 249 0114 05D5     		bpl	.L20
 250              	.L18:
 506:Drivers/STM32L0xx_HAL_Driver/Src/stm32l0xx_hal_flash_ramfunc.c ****   {
 507:Drivers/STM32L0xx_HAL_Driver/Src/stm32l0xx_hal_flash_ramfunc.c ****     /*Save the error code*/
 508:Drivers/STM32L0xx_HAL_Driver/Src/stm32l0xx_hal_flash_ramfunc.c **** 
 509:Drivers/STM32L0xx_HAL_Driver/Src/stm32l0xx_hal_flash_ramfunc.c ****     /* WARNING : On the first cut of STM32L031xx and STM32L041xx devices,
 510:Drivers/STM32L0xx_HAL_Driver/Src/stm32l0xx_hal_flash_ramfunc.c ****      *           (RefID = 0x1000) the FLASH_FLAG_OPTVERR bit was not behaving
 511:Drivers/STM32L0xx_HAL_Driver/Src/stm32l0xx_hal_flash_ramfunc.c ****      *           as expected. If the user run an application using the first
 512:Drivers/STM32L0xx_HAL_Driver/Src/stm32l0xx_hal_flash_ramfunc.c ****      *           cut of the STM32L031xx device or the first cut of the STM32L041xx
 513:Drivers/STM32L0xx_HAL_Driver/Src/stm32l0xx_hal_flash_ramfunc.c ****      *           device, this error should be ignored. The revId of the device
 514:Drivers/STM32L0xx_HAL_Driver/Src/stm32l0xx_hal_flash_ramfunc.c ****      *           can be retrieved via the HAL_GetREVID() function.
 515:Drivers/STM32L0xx_HAL_Driver/Src/stm32l0xx_hal_flash_ramfunc.c ****      *
 516:Drivers/STM32L0xx_HAL_Driver/Src/stm32l0xx_hal_flash_ramfunc.c ****      */
 517:Drivers/STM32L0xx_HAL_Driver/Src/stm32l0xx_hal_flash_ramfunc.c ****     FLASHRAM_SetErrorCode();
 251              		.loc 1 517 0
 252 0116 FFF773FF 		bl	FLASHRAM_SetErrorCode
 253              	.LVL12:
 518:Drivers/STM32L0xx_HAL_Driver/Src/stm32l0xx_hal_flash_ramfunc.c ****     return HAL_ERROR;
 254              		.loc 1 518 0
 255 011a 0120     		mov	r0, #1
 256 011c 02E0     		b	.L16
 257              	.LVL13:
 258              	.L19:
 489:Drivers/STM32L0xx_HAL_Driver/Src/stm32l0xx_hal_flash_ramfunc.c ****       return HAL_TIMEOUT;
 259              		.loc 1 489 0
 260 011e 0320     		mov	r0, #3
 261              	.LVL14:
 262 0120 00E0     		b	.L16
 263              	.LVL15:
 264              	.L20:
 519:Drivers/STM32L0xx_HAL_Driver/Src/stm32l0xx_hal_flash_ramfunc.c ****   }
 520:Drivers/STM32L0xx_HAL_Driver/Src/stm32l0xx_hal_flash_ramfunc.c **** 
 521:Drivers/STM32L0xx_HAL_Driver/Src/stm32l0xx_hal_flash_ramfunc.c ****   /* There is no error flag set */
 522:Drivers/STM32L0xx_HAL_Driver/Src/stm32l0xx_hal_flash_ramfunc.c ****   return HAL_OK;
 265              		.loc 1 522 0
 266 0122 0020     		mov	r0, #0
 267              	.LVL16:
 268              	.L16:
 523:Drivers/STM32L0xx_HAL_Driver/Src/stm32l0xx_hal_flash_ramfunc.c **** }
ARM GAS  /tmp/ccYoxJDu.s 			page 15


 269              		.loc 1 523 0
 270              		@ sp needed
 271 0124 08BD     		pop	{r3, pc}
 272              	.L22:
 273 0126 C046     		.align	2
 274              	.L21:
 275 0128 00200240 		.word	1073881088
 276              		.cfi_endproc
 277              	.LFE43:
 279              		.align	2
 280              		.global	HAL_FLASHEx_EnableRunPowerDown
 281              		.code	16
 282              		.thumb_func
 284              	HAL_FLASHEx_EnableRunPowerDown:
 285              	.LFB36:
 134:Drivers/STM32L0xx_HAL_Driver/Src/stm32l0xx_hal_flash_ramfunc.c **** {
 286              		.loc 1 134 0
 287              		.cfi_startproc
 136:Drivers/STM32L0xx_HAL_Driver/Src/stm32l0xx_hal_flash_ramfunc.c ****   __HAL_FLASH_POWER_DOWN_ENABLE();
 288              		.loc 1 136 0
 289 012c 054B     		ldr	r3, .L24
 290 012e 064A     		ldr	r2, .L24+4
 291 0130 9A60     		str	r2, [r3, #8]
 292 0132 064A     		ldr	r2, .L24+8
 293 0134 9A60     		str	r2, [r3, #8]
 294 0136 1968     		ldr	r1, [r3]
 295 0138 1022     		mov	r2, #16
 296 013a 0A43     		orr	r2, r1
 297 013c 1A60     		str	r2, [r3]
 139:Drivers/STM32L0xx_HAL_Driver/Src/stm32l0xx_hal_flash_ramfunc.c **** }
 298              		.loc 1 139 0
 299 013e 0020     		mov	r0, #0
 300              		@ sp needed
 301 0140 7047     		bx	lr
 302              	.L25:
 303 0142 C046     		.align	2
 304              	.L24:
 305 0144 00200240 		.word	1073881088
 306 0148 37261504 		.word	68494903
 307 014c FDFCFBFA 		.word	-84148995
 308              		.cfi_endproc
 309              	.LFE36:
 311              		.align	2
 312              		.global	HAL_FLASHEx_DisableRunPowerDown
 313              		.code	16
 314              		.thumb_func
 316              	HAL_FLASHEx_DisableRunPowerDown:
 317              	.LFB37:
 147:Drivers/STM32L0xx_HAL_Driver/Src/stm32l0xx_hal_flash_ramfunc.c **** {
 318              		.loc 1 147 0
 319              		.cfi_startproc
 149:Drivers/STM32L0xx_HAL_Driver/Src/stm32l0xx_hal_flash_ramfunc.c ****   __HAL_FLASH_POWER_DOWN_DISABLE();
 320              		.loc 1 149 0
 321 0150 054B     		ldr	r3, .L27
 322 0152 064A     		ldr	r2, .L27+4
 323 0154 9A60     		str	r2, [r3, #8]
 324 0156 064A     		ldr	r2, .L27+8
ARM GAS  /tmp/ccYoxJDu.s 			page 16


 325 0158 9A60     		str	r2, [r3, #8]
 326 015a 1A68     		ldr	r2, [r3]
 327 015c 1021     		mov	r1, #16
 328 015e 8A43     		bic	r2, r1
 329 0160 1A60     		str	r2, [r3]
 152:Drivers/STM32L0xx_HAL_Driver/Src/stm32l0xx_hal_flash_ramfunc.c **** }
 330              		.loc 1 152 0
 331 0162 0020     		mov	r0, #0
 332              		@ sp needed
 333 0164 7047     		bx	lr
 334              	.L28:
 335 0166 C046     		.align	2
 336              	.L27:
 337 0168 00200240 		.word	1073881088
 338 016c 37261504 		.word	68494903
 339 0170 FDFCFBFA 		.word	-84148995
 340              		.cfi_endproc
 341              	.LFE37:
 343              		.align	2
 344              		.global	HAL_FLASHEx_EraseParallelPage
 345              		.code	16
 346              		.thumb_func
 348              	HAL_FLASHEx_EraseParallelPage:
 349              	.LFB38:
 184:Drivers/STM32L0xx_HAL_Driver/Src/stm32l0xx_hal_flash_ramfunc.c **** {
 350              		.loc 1 184 0
 351              		.cfi_startproc
 352              	.LVL17:
 353 0174 F8B5     		push	{r3, r4, r5, r6, r7, lr}
 354              	.LCFI1:
 355              		.cfi_def_cfa_offset 24
 356              		.cfi_offset 3, -24
 357              		.cfi_offset 4, -20
 358              		.cfi_offset 5, -16
 359              		.cfi_offset 6, -12
 360              		.cfi_offset 7, -8
 361              		.cfi_offset 14, -4
 362 0176 061C     		mov	r6, r0
 363 0178 0D1C     		mov	r5, r1
 364              	.LVL18:
 188:Drivers/STM32L0xx_HAL_Driver/Src/stm32l0xx_hal_flash_ramfunc.c ****   status = FLASHRAM_WaitForLastOperation(FLASH_TIMEOUT_VALUE);
 365              		.loc 1 188 0
 366 017a 1348     		ldr	r0, .L31
 367              	.LVL19:
 368 017c FFF79CFF 		bl	FLASHRAM_WaitForLastOperation
 369              	.LVL20:
 190:Drivers/STM32L0xx_HAL_Driver/Src/stm32l0xx_hal_flash_ramfunc.c ****   if(status == HAL_OK)
 370              		.loc 1 190 0
 371 0180 0028     		cmp	r0, #0
 372 0182 1FD1     		bne	.L30
 193:Drivers/STM32L0xx_HAL_Driver/Src/stm32l0xx_hal_flash_ramfunc.c ****     SET_BIT(FLASH->PECR, FLASH_PECR_PARALLBANK);
 373              		.loc 1 193 0
 374 0184 114C     		ldr	r4, .L31+4
 375 0186 6268     		ldr	r2, [r4, #4]
 376 0188 8023     		mov	r3, #128
 377 018a 1B02     		lsl	r3, r3, #8
 378 018c 1343     		orr	r3, r2
ARM GAS  /tmp/ccYoxJDu.s 			page 17


 379 018e 6360     		str	r3, [r4, #4]
 194:Drivers/STM32L0xx_HAL_Driver/Src/stm32l0xx_hal_flash_ramfunc.c ****     SET_BIT(FLASH->PECR, FLASH_PECR_ERASE);
 380              		.loc 1 194 0
 381 0190 6268     		ldr	r2, [r4, #4]
 382 0192 8023     		mov	r3, #128
 383 0194 9B00     		lsl	r3, r3, #2
 384 0196 1343     		orr	r3, r2
 385 0198 6360     		str	r3, [r4, #4]
 195:Drivers/STM32L0xx_HAL_Driver/Src/stm32l0xx_hal_flash_ramfunc.c ****     SET_BIT(FLASH->PECR, FLASH_PECR_PROG);
 386              		.loc 1 195 0
 387 019a 6368     		ldr	r3, [r4, #4]
 388 019c 0827     		mov	r7, #8
 389 019e 3B43     		orr	r3, r7
 390 01a0 6360     		str	r3, [r4, #4]
 198:Drivers/STM32L0xx_HAL_Driver/Src/stm32l0xx_hal_flash_ramfunc.c ****     *(__IO uint32_t *)Page_Address1 = 0x00000000U;
 391              		.loc 1 198 0
 392 01a2 0023     		mov	r3, #0
 393 01a4 3360     		str	r3, [r6]
 200:Drivers/STM32L0xx_HAL_Driver/Src/stm32l0xx_hal_flash_ramfunc.c ****     *(__IO uint32_t *)Page_Address2 = 0x00000000U;
 394              		.loc 1 200 0
 395 01a6 2B60     		str	r3, [r5]
 203:Drivers/STM32L0xx_HAL_Driver/Src/stm32l0xx_hal_flash_ramfunc.c ****     status = FLASHRAM_WaitForLastOperation(FLASH_TIMEOUT_VALUE);
 396              		.loc 1 203 0
 397 01a8 0748     		ldr	r0, .L31
 398              	.LVL21:
 399 01aa FFF785FF 		bl	FLASHRAM_WaitForLastOperation
 400              	.LVL22:
 206:Drivers/STM32L0xx_HAL_Driver/Src/stm32l0xx_hal_flash_ramfunc.c ****     CLEAR_BIT(FLASH->PECR, FLASH_PECR_PROG);
 401              		.loc 1 206 0
 402 01ae 6368     		ldr	r3, [r4, #4]
 403 01b0 BB43     		bic	r3, r7
 404 01b2 6360     		str	r3, [r4, #4]
 207:Drivers/STM32L0xx_HAL_Driver/Src/stm32l0xx_hal_flash_ramfunc.c ****     CLEAR_BIT(FLASH->PECR, FLASH_PECR_ERASE);
 405              		.loc 1 207 0
 406 01b4 6268     		ldr	r2, [r4, #4]
 407 01b6 064B     		ldr	r3, .L31+8
 408 01b8 1340     		and	r3, r2
 409 01ba 6360     		str	r3, [r4, #4]
 208:Drivers/STM32L0xx_HAL_Driver/Src/stm32l0xx_hal_flash_ramfunc.c ****     CLEAR_BIT(FLASH->PECR, FLASH_PECR_PARALLBANK);
 410              		.loc 1 208 0
 411 01bc 6268     		ldr	r2, [r4, #4]
 412 01be 054B     		ldr	r3, .L31+12
 413 01c0 1340     		and	r3, r2
 414 01c2 6360     		str	r3, [r4, #4]
 415              	.LVL23:
 416              	.L30:
 212:Drivers/STM32L0xx_HAL_Driver/Src/stm32l0xx_hal_flash_ramfunc.c **** }
 417              		.loc 1 212 0
 418              		@ sp needed
 419              	.LVL24:
 420              	.LVL25:
 421 01c4 F8BD     		pop	{r3, r4, r5, r6, r7, pc}
 422              	.L32:
 423 01c6 C046     		.align	2
 424              	.L31:
 425 01c8 50C30000 		.word	50000
 426 01cc 00200240 		.word	1073881088
ARM GAS  /tmp/ccYoxJDu.s 			page 18


 427 01d0 FFFDFFFF 		.word	-513
 428 01d4 FF7FFFFF 		.word	-32769
 429              		.cfi_endproc
 430              	.LFE38:
 432              		.align	2
 433              		.global	HAL_FLASHEx_ProgramParallelHalfPage
 434              		.code	16
 435              		.thumb_func
 437              	HAL_FLASHEx_ProgramParallelHalfPage:
 438              	.LFB39:
 243:Drivers/STM32L0xx_HAL_Driver/Src/stm32l0xx_hal_flash_ramfunc.c **** {
 439              		.loc 1 243 0
 440              		.cfi_startproc
 441              	.LVL26:
 442 01d8 F0B5     		push	{r4, r5, r6, r7, lr}
 443              	.LCFI2:
 444              		.cfi_def_cfa_offset 20
 445              		.cfi_offset 4, -20
 446              		.cfi_offset 5, -16
 447              		.cfi_offset 6, -12
 448              		.cfi_offset 7, -8
 449              		.cfi_offset 14, -4
 450 01da 4746     		mov	r7, r8
 451 01dc 80B4     		push	{r7}
 452              	.LCFI3:
 453              		.cfi_def_cfa_offset 24
 454              		.cfi_offset 8, -24
 455 01de 8046     		mov	r8, r0
 456 01e0 0E1C     		mov	r6, r1
 457 01e2 171C     		mov	r7, r2
 458 01e4 1D1C     		mov	r5, r3
 459              	.LVL27:
 248:Drivers/STM32L0xx_HAL_Driver/Src/stm32l0xx_hal_flash_ramfunc.c ****   status = FLASHRAM_WaitForLastOperation(FLASH_TIMEOUT_VALUE);
 460              		.loc 1 248 0
 461 01e6 1E48     		ldr	r0, .L40
 462              	.LVL28:
 463 01e8 FFF766FF 		bl	FLASHRAM_WaitForLastOperation
 464              	.LVL29:
 250:Drivers/STM32L0xx_HAL_Driver/Src/stm32l0xx_hal_flash_ramfunc.c ****   if(status == HAL_OK)
 465              		.loc 1 250 0
 466 01ec 0028     		cmp	r0, #0
 467 01ee 34D1     		bne	.L34
 253:Drivers/STM32L0xx_HAL_Driver/Src/stm32l0xx_hal_flash_ramfunc.c ****     SET_BIT(FLASH->PECR, FLASH_PECR_PARALLBANK);
 468              		.loc 1 253 0
 469 01f0 1C4B     		ldr	r3, .L40+4
 470 01f2 5968     		ldr	r1, [r3, #4]
 471 01f4 8022     		mov	r2, #128
 472 01f6 1202     		lsl	r2, r2, #8
 473 01f8 0A43     		orr	r2, r1
 474 01fa 5A60     		str	r2, [r3, #4]
 254:Drivers/STM32L0xx_HAL_Driver/Src/stm32l0xx_hal_flash_ramfunc.c ****     SET_BIT(FLASH->PECR, FLASH_PECR_FPRG);
 475              		.loc 1 254 0
 476 01fc 5968     		ldr	r1, [r3, #4]
 477 01fe 8022     		mov	r2, #128
 478 0200 D200     		lsl	r2, r2, #3
 479 0202 0A43     		orr	r2, r1
 480 0204 5A60     		str	r2, [r3, #4]
ARM GAS  /tmp/ccYoxJDu.s 			page 19


 255:Drivers/STM32L0xx_HAL_Driver/Src/stm32l0xx_hal_flash_ramfunc.c ****     SET_BIT(FLASH->PECR, FLASH_PECR_PROG);
 481              		.loc 1 255 0
 482 0206 5968     		ldr	r1, [r3, #4]
 483 0208 0822     		mov	r2, #8
 484 020a 0A43     		orr	r2, r1
 485 020c 5A60     		str	r2, [r3, #4]
 258:Drivers/STM32L0xx_HAL_Driver/Src/stm32l0xx_hal_flash_ramfunc.c ****     status = FLASHRAM_WaitForLastOperation(FLASH_TIMEOUT_VALUE);
 486              		.loc 1 258 0
 487 020e 1448     		ldr	r0, .L40
 488              	.LVL30:
 489 0210 FFF752FF 		bl	FLASHRAM_WaitForLastOperation
 490              	.LVL31:
 259:Drivers/STM32L0xx_HAL_Driver/Src/stm32l0xx_hal_flash_ramfunc.c ****     if(status == HAL_OK)
 491              		.loc 1 259 0
 492 0214 0028     		cmp	r0, #0
 493 0216 13D1     		bne	.L35
 494              	.LBB10:
 495              	.LBB11:
 496              		.file 2 "Drivers/CMSIS/Include/cmsis_gcc.h"
   1:Drivers/CMSIS/Include/cmsis_gcc.h **** /**************************************************************************//**
   2:Drivers/CMSIS/Include/cmsis_gcc.h ****  * @file     cmsis_gcc.h
   3:Drivers/CMSIS/Include/cmsis_gcc.h ****  * @brief    CMSIS Cortex-M Core Function/Instruction Header File
   4:Drivers/CMSIS/Include/cmsis_gcc.h ****  * @version  V4.30
   5:Drivers/CMSIS/Include/cmsis_gcc.h ****  * @date     20. October 2015
   6:Drivers/CMSIS/Include/cmsis_gcc.h ****  ******************************************************************************/
   7:Drivers/CMSIS/Include/cmsis_gcc.h **** /* Copyright (c) 2009 - 2015 ARM LIMITED
   8:Drivers/CMSIS/Include/cmsis_gcc.h **** 
   9:Drivers/CMSIS/Include/cmsis_gcc.h ****    All rights reserved.
  10:Drivers/CMSIS/Include/cmsis_gcc.h ****    Redistribution and use in source and binary forms, with or without
  11:Drivers/CMSIS/Include/cmsis_gcc.h ****    modification, are permitted provided that the following conditions are met:
  12:Drivers/CMSIS/Include/cmsis_gcc.h ****    - Redistributions of source code must retain the above copyright
  13:Drivers/CMSIS/Include/cmsis_gcc.h ****      notice, this list of conditions and the following disclaimer.
  14:Drivers/CMSIS/Include/cmsis_gcc.h ****    - Redistributions in binary form must reproduce the above copyright
  15:Drivers/CMSIS/Include/cmsis_gcc.h ****      notice, this list of conditions and the following disclaimer in the
  16:Drivers/CMSIS/Include/cmsis_gcc.h ****      documentation and/or other materials provided with the distribution.
  17:Drivers/CMSIS/Include/cmsis_gcc.h ****    - Neither the name of ARM nor the names of its contributors may be used
  18:Drivers/CMSIS/Include/cmsis_gcc.h ****      to endorse or promote products derived from this software without
  19:Drivers/CMSIS/Include/cmsis_gcc.h ****      specific prior written permission.
  20:Drivers/CMSIS/Include/cmsis_gcc.h ****    *
  21:Drivers/CMSIS/Include/cmsis_gcc.h ****    THIS SOFTWARE IS PROVIDED BY THE COPYRIGHT HOLDERS AND CONTRIBUTORS "AS IS"
  22:Drivers/CMSIS/Include/cmsis_gcc.h ****    AND ANY EXPRESS OR IMPLIED WARRANTIES, INCLUDING, BUT NOT LIMITED TO, THE
  23:Drivers/CMSIS/Include/cmsis_gcc.h ****    IMPLIED WARRANTIES OF MERCHANTABILITY AND FITNESS FOR A PARTICULAR PURPOSE
  24:Drivers/CMSIS/Include/cmsis_gcc.h ****    ARE DISCLAIMED. IN NO EVENT SHALL COPYRIGHT HOLDERS AND CONTRIBUTORS BE
  25:Drivers/CMSIS/Include/cmsis_gcc.h ****    LIABLE FOR ANY DIRECT, INDIRECT, INCIDENTAL, SPECIAL, EXEMPLARY, OR
  26:Drivers/CMSIS/Include/cmsis_gcc.h ****    CONSEQUENTIAL DAMAGES (INCLUDING, BUT NOT LIMITED TO, PROCUREMENT OF
  27:Drivers/CMSIS/Include/cmsis_gcc.h ****    SUBSTITUTE GOODS OR SERVICES; LOSS OF USE, DATA, OR PROFITS; OR BUSINESS
  28:Drivers/CMSIS/Include/cmsis_gcc.h ****    INTERRUPTION) HOWEVER CAUSED AND ON ANY THEORY OF LIABILITY, WHETHER IN
  29:Drivers/CMSIS/Include/cmsis_gcc.h ****    CONTRACT, STRICT LIABILITY, OR TORT (INCLUDING NEGLIGENCE OR OTHERWISE)
  30:Drivers/CMSIS/Include/cmsis_gcc.h ****    ARISING IN ANY WAY OUT OF THE USE OF THIS SOFTWARE, EVEN IF ADVISED OF THE
  31:Drivers/CMSIS/Include/cmsis_gcc.h ****    POSSIBILITY OF SUCH DAMAGE.
  32:Drivers/CMSIS/Include/cmsis_gcc.h ****    ---------------------------------------------------------------------------*/
  33:Drivers/CMSIS/Include/cmsis_gcc.h **** 
  34:Drivers/CMSIS/Include/cmsis_gcc.h **** 
  35:Drivers/CMSIS/Include/cmsis_gcc.h **** #ifndef __CMSIS_GCC_H
  36:Drivers/CMSIS/Include/cmsis_gcc.h **** #define __CMSIS_GCC_H
  37:Drivers/CMSIS/Include/cmsis_gcc.h **** 
  38:Drivers/CMSIS/Include/cmsis_gcc.h **** /* ignore some GCC warnings */
ARM GAS  /tmp/ccYoxJDu.s 			page 20


  39:Drivers/CMSIS/Include/cmsis_gcc.h **** #if defined ( __GNUC__ )
  40:Drivers/CMSIS/Include/cmsis_gcc.h **** #pragma GCC diagnostic push
  41:Drivers/CMSIS/Include/cmsis_gcc.h **** #pragma GCC diagnostic ignored "-Wsign-conversion"
  42:Drivers/CMSIS/Include/cmsis_gcc.h **** #pragma GCC diagnostic ignored "-Wconversion"
  43:Drivers/CMSIS/Include/cmsis_gcc.h **** #pragma GCC diagnostic ignored "-Wunused-parameter"
  44:Drivers/CMSIS/Include/cmsis_gcc.h **** #endif
  45:Drivers/CMSIS/Include/cmsis_gcc.h **** 
  46:Drivers/CMSIS/Include/cmsis_gcc.h **** 
  47:Drivers/CMSIS/Include/cmsis_gcc.h **** /* ###########################  Core Function Access  ########################### */
  48:Drivers/CMSIS/Include/cmsis_gcc.h **** /** \ingroup  CMSIS_Core_FunctionInterface
  49:Drivers/CMSIS/Include/cmsis_gcc.h ****     \defgroup CMSIS_Core_RegAccFunctions CMSIS Core Register Access Functions
  50:Drivers/CMSIS/Include/cmsis_gcc.h ****   @{
  51:Drivers/CMSIS/Include/cmsis_gcc.h ****  */
  52:Drivers/CMSIS/Include/cmsis_gcc.h **** 
  53:Drivers/CMSIS/Include/cmsis_gcc.h **** /**
  54:Drivers/CMSIS/Include/cmsis_gcc.h ****   \brief   Enable IRQ Interrupts
  55:Drivers/CMSIS/Include/cmsis_gcc.h ****   \details Enables IRQ interrupts by clearing the I-bit in the CPSR.
  56:Drivers/CMSIS/Include/cmsis_gcc.h ****            Can only be executed in Privileged modes.
  57:Drivers/CMSIS/Include/cmsis_gcc.h ****  */
  58:Drivers/CMSIS/Include/cmsis_gcc.h **** __attribute__( ( always_inline ) ) __STATIC_INLINE void __enable_irq(void)
  59:Drivers/CMSIS/Include/cmsis_gcc.h **** {
  60:Drivers/CMSIS/Include/cmsis_gcc.h ****   __ASM volatile ("cpsie i" : : : "memory");
  61:Drivers/CMSIS/Include/cmsis_gcc.h **** }
  62:Drivers/CMSIS/Include/cmsis_gcc.h **** 
  63:Drivers/CMSIS/Include/cmsis_gcc.h **** 
  64:Drivers/CMSIS/Include/cmsis_gcc.h **** /**
  65:Drivers/CMSIS/Include/cmsis_gcc.h ****   \brief   Disable IRQ Interrupts
  66:Drivers/CMSIS/Include/cmsis_gcc.h ****   \details Disables IRQ interrupts by setting the I-bit in the CPSR.
  67:Drivers/CMSIS/Include/cmsis_gcc.h ****   Can only be executed in Privileged modes.
  68:Drivers/CMSIS/Include/cmsis_gcc.h ****  */
  69:Drivers/CMSIS/Include/cmsis_gcc.h **** __attribute__( ( always_inline ) ) __STATIC_INLINE void __disable_irq(void)
  70:Drivers/CMSIS/Include/cmsis_gcc.h **** {
  71:Drivers/CMSIS/Include/cmsis_gcc.h ****   __ASM volatile ("cpsid i" : : : "memory");
 497              		.loc 2 71 0
 498              	@ 71 "Drivers/CMSIS/Include/cmsis_gcc.h" 1
 499 0218 72B6     		cpsid i
 500              	@ 0 "" 2
 501              		.code	16
 502              	.LBE11:
 503              	.LBE10:
 244:Drivers/STM32L0xx_HAL_Driver/Src/stm32l0xx_hal_flash_ramfunc.c ****   uint32_t count = 0U; 
 504              		.loc 1 244 0
 505 021a 0024     		mov	r4, #0
 506 021c 03E0     		b	.L36
 507              	.LVL32:
 508              	.L37:
 268:Drivers/STM32L0xx_HAL_Driver/Src/stm32l0xx_hal_flash_ramfunc.c ****         *(__IO uint32_t*) Address1 = *pBuffer1;
 509              		.loc 1 268 0
 510 021e 08CE     		ldmia	r6!, {r3}
 511              	.LVL33:
 512 0220 4246     		mov	r2, r8
 513 0222 1360     		str	r3, [r2]
 514              	.LVL34:
 270:Drivers/STM32L0xx_HAL_Driver/Src/stm32l0xx_hal_flash_ramfunc.c ****         count ++;  
 515              		.loc 1 270 0
 516 0224 0134     		add	r4, r4, #1
 517              	.LVL35:
ARM GAS  /tmp/ccYoxJDu.s 			page 21


 518              	.L36:
 265:Drivers/STM32L0xx_HAL_Driver/Src/stm32l0xx_hal_flash_ramfunc.c ****       while(count < 16U)
 519              		.loc 1 265 0 discriminator 1
 520 0226 0F2C     		cmp	r4, #15
 521 0228 F9D9     		bls	.L37
 522 022a 0021     		mov	r1, #0
 523 022c 02E0     		b	.L38
 524              	.LVL36:
 525              	.L39:
 278:Drivers/STM32L0xx_HAL_Driver/Src/stm32l0xx_hal_flash_ramfunc.c ****         *(__IO uint32_t*) Address2 = *pBuffer2;
 526              		.loc 1 278 0
 527 022e 08CD     		ldmia	r5!, {r3}
 528              	.LVL37:
 529 0230 3B60     		str	r3, [r7]
 530              	.LVL38:
 280:Drivers/STM32L0xx_HAL_Driver/Src/stm32l0xx_hal_flash_ramfunc.c ****         count ++;  
 531              		.loc 1 280 0
 532 0232 0131     		add	r1, r1, #1
 533              	.LVL39:
 534              	.L38:
 275:Drivers/STM32L0xx_HAL_Driver/Src/stm32l0xx_hal_flash_ramfunc.c ****       while(count < 16U)
 535              		.loc 1 275 0 discriminator 1
 536 0234 0F29     		cmp	r1, #15
 537 0236 FAD9     		bls	.L39
 538              	.LBB12:
 539              	.LBB13:
  60:Drivers/CMSIS/Include/cmsis_gcc.h ****   __ASM volatile ("cpsie i" : : : "memory");
 540              		.loc 2 60 0
 541              	@ 60 "Drivers/CMSIS/Include/cmsis_gcc.h" 1
 542 0238 62B6     		cpsie i
 543              	@ 0 "" 2
 544              		.code	16
 545              	.LBE13:
 546              	.LBE12:
 287:Drivers/STM32L0xx_HAL_Driver/Src/stm32l0xx_hal_flash_ramfunc.c ****       status = FLASHRAM_WaitForLastOperation(FLASH_TIMEOUT_VALUE);
 547              		.loc 1 287 0
 548 023a 0948     		ldr	r0, .L40
 549              	.LVL40:
 550 023c FFF73CFF 		bl	FLASHRAM_WaitForLastOperation
 551              	.LVL41:
 552              	.L35:
 291:Drivers/STM32L0xx_HAL_Driver/Src/stm32l0xx_hal_flash_ramfunc.c ****     CLEAR_BIT(FLASH->PECR, FLASH_PECR_PROG);
 553              		.loc 1 291 0
 554 0240 084B     		ldr	r3, .L40+4
 555 0242 5A68     		ldr	r2, [r3, #4]
 556 0244 0821     		mov	r1, #8
 557 0246 8A43     		bic	r2, r1
 558 0248 5A60     		str	r2, [r3, #4]
 292:Drivers/STM32L0xx_HAL_Driver/Src/stm32l0xx_hal_flash_ramfunc.c ****     CLEAR_BIT(FLASH->PECR, FLASH_PECR_FPRG);
 559              		.loc 1 292 0
 560 024a 5968     		ldr	r1, [r3, #4]
 561 024c 064A     		ldr	r2, .L40+8
 562 024e 0A40     		and	r2, r1
 563 0250 5A60     		str	r2, [r3, #4]
 293:Drivers/STM32L0xx_HAL_Driver/Src/stm32l0xx_hal_flash_ramfunc.c ****     CLEAR_BIT(FLASH->PECR, FLASH_PECR_PARALLBANK);
 564              		.loc 1 293 0
 565 0252 5968     		ldr	r1, [r3, #4]
ARM GAS  /tmp/ccYoxJDu.s 			page 22


 566 0254 054A     		ldr	r2, .L40+12
 567 0256 0A40     		and	r2, r1
 568 0258 5A60     		str	r2, [r3, #4]
 569              	.LVL42:
 570              	.L34:
 298:Drivers/STM32L0xx_HAL_Driver/Src/stm32l0xx_hal_flash_ramfunc.c **** }
 571              		.loc 1 298 0
 572              		@ sp needed
 573              	.LVL43:
 574              	.LVL44:
 575              	.LVL45:
 576              	.LVL46:
 577 025a 04BC     		pop	{r2}
 578 025c 9046     		mov	r8, r2
 579 025e F0BD     		pop	{r4, r5, r6, r7, pc}
 580              	.L41:
 581              		.align	2
 582              	.L40:
 583 0260 50C30000 		.word	50000
 584 0264 00200240 		.word	1073881088
 585 0268 FFFBFFFF 		.word	-1025
 586 026c FF7FFFFF 		.word	-32769
 587              		.cfi_endproc
 588              	.LFE39:
 590              		.align	2
 591              		.global	HAL_FLASHEx_HalfPageProgram
 592              		.code	16
 593              		.thumb_func
 595              	HAL_FLASHEx_HalfPageProgram:
 596              	.LFB40:
 324:Drivers/STM32L0xx_HAL_Driver/Src/stm32l0xx_hal_flash_ramfunc.c **** {
 597              		.loc 1 324 0
 598              		.cfi_startproc
 599              	.LVL47:
 600 0270 38B5     		push	{r3, r4, r5, lr}
 601              	.LCFI4:
 602              		.cfi_def_cfa_offset 16
 603              		.cfi_offset 3, -16
 604              		.cfi_offset 4, -12
 605              		.cfi_offset 5, -8
 606              		.cfi_offset 14, -4
 607 0272 051C     		mov	r5, r0
 608 0274 0C1C     		mov	r4, r1
 609              	.LVL48:
 329:Drivers/STM32L0xx_HAL_Driver/Src/stm32l0xx_hal_flash_ramfunc.c ****   status = FLASHRAM_WaitForLastOperation(FLASH_TIMEOUT_VALUE);
 610              		.loc 1 329 0
 611 0276 1248     		ldr	r0, .L46
 612              	.LVL49:
 613 0278 FFF71EFF 		bl	FLASHRAM_WaitForLastOperation
 614              	.LVL50:
 331:Drivers/STM32L0xx_HAL_Driver/Src/stm32l0xx_hal_flash_ramfunc.c ****   if(status == HAL_OK)
 615              		.loc 1 331 0
 616 027c 0028     		cmp	r0, #0
 617 027e 1ED1     		bne	.L43
 334:Drivers/STM32L0xx_HAL_Driver/Src/stm32l0xx_hal_flash_ramfunc.c ****     SET_BIT(FLASH->PECR, FLASH_PECR_FPRG);
 618              		.loc 1 334 0
 619 0280 104B     		ldr	r3, .L46+4
ARM GAS  /tmp/ccYoxJDu.s 			page 23


 620 0282 5968     		ldr	r1, [r3, #4]
 621 0284 8022     		mov	r2, #128
 622 0286 D200     		lsl	r2, r2, #3
 623 0288 0A43     		orr	r2, r1
 624 028a 5A60     		str	r2, [r3, #4]
 335:Drivers/STM32L0xx_HAL_Driver/Src/stm32l0xx_hal_flash_ramfunc.c ****     SET_BIT(FLASH->PECR, FLASH_PECR_PROG);
 625              		.loc 1 335 0
 626 028c 5968     		ldr	r1, [r3, #4]
 627 028e 0822     		mov	r2, #8
 628 0290 0A43     		orr	r2, r1
 629 0292 5A60     		str	r2, [r3, #4]
 630              	.LBB14:
 631              	.LBB15:
 632              		.loc 2 71 0
 633              	@ 71 "Drivers/CMSIS/Include/cmsis_gcc.h" 1
 634 0294 72B6     		cpsid i
 635              	@ 0 "" 2
 636              		.code	16
 637              	.LBE15:
 638              	.LBE14:
 325:Drivers/STM32L0xx_HAL_Driver/Src/stm32l0xx_hal_flash_ramfunc.c ****   uint32_t count = 0U; 
 639              		.loc 1 325 0
 640 0296 0023     		mov	r3, #0
 641 0298 02E0     		b	.L44
 642              	.LVL51:
 643              	.L45:
 344:Drivers/STM32L0xx_HAL_Driver/Src/stm32l0xx_hal_flash_ramfunc.c ****       *(__IO uint32_t*) Address = *pBuffer;
 644              		.loc 1 344 0
 645 029a 04CC     		ldmia	r4!, {r2}
 646              	.LVL52:
 647 029c 2A60     		str	r2, [r5]
 648              	.LVL53:
 346:Drivers/STM32L0xx_HAL_Driver/Src/stm32l0xx_hal_flash_ramfunc.c ****       count ++;  
 649              		.loc 1 346 0
 650 029e 0133     		add	r3, r3, #1
 651              	.LVL54:
 652              	.L44:
 341:Drivers/STM32L0xx_HAL_Driver/Src/stm32l0xx_hal_flash_ramfunc.c ****     while(count < 16U)
 653              		.loc 1 341 0 discriminator 1
 654 02a0 0F2B     		cmp	r3, #15
 655 02a2 FAD9     		bls	.L45
 656              	.LBB16:
 657              	.LBB17:
  60:Drivers/CMSIS/Include/cmsis_gcc.h ****   __ASM volatile ("cpsie i" : : : "memory");
 658              		.loc 2 60 0
 659              	@ 60 "Drivers/CMSIS/Include/cmsis_gcc.h" 1
 660 02a4 62B6     		cpsie i
 661              	@ 0 "" 2
 662              		.code	16
 663              	.LBE17:
 664              	.LBE16:
 353:Drivers/STM32L0xx_HAL_Driver/Src/stm32l0xx_hal_flash_ramfunc.c ****     status = FLASHRAM_WaitForLastOperation(FLASH_TIMEOUT_VALUE);
 665              		.loc 1 353 0
 666 02a6 0648     		ldr	r0, .L46
 667              	.LVL55:
 668 02a8 FFF706FF 		bl	FLASHRAM_WaitForLastOperation
 669              	.LVL56:
ARM GAS  /tmp/ccYoxJDu.s 			page 24


 356:Drivers/STM32L0xx_HAL_Driver/Src/stm32l0xx_hal_flash_ramfunc.c ****     CLEAR_BIT(FLASH->PECR, FLASH_PECR_PROG);
 670              		.loc 1 356 0
 671 02ac 054B     		ldr	r3, .L46+4
 672 02ae 5A68     		ldr	r2, [r3, #4]
 673 02b0 0821     		mov	r1, #8
 674 02b2 8A43     		bic	r2, r1
 675 02b4 5A60     		str	r2, [r3, #4]
 357:Drivers/STM32L0xx_HAL_Driver/Src/stm32l0xx_hal_flash_ramfunc.c ****     CLEAR_BIT(FLASH->PECR, FLASH_PECR_FPRG);
 676              		.loc 1 357 0
 677 02b6 5968     		ldr	r1, [r3, #4]
 678 02b8 034A     		ldr	r2, .L46+8
 679 02ba 0A40     		and	r2, r1
 680 02bc 5A60     		str	r2, [r3, #4]
 681              	.LVL57:
 682              	.L43:
 362:Drivers/STM32L0xx_HAL_Driver/Src/stm32l0xx_hal_flash_ramfunc.c **** }
 683              		.loc 1 362 0
 684              		@ sp needed
 685              	.LVL58:
 686              	.LVL59:
 687 02be 38BD     		pop	{r3, r4, r5, pc}
 688              	.L47:
 689              		.align	2
 690              	.L46:
 691 02c0 50C30000 		.word	50000
 692 02c4 00200240 		.word	1073881088
 693 02c8 FFFBFFFF 		.word	-1025
 694              		.cfi_endproc
 695              	.LFE40:
 697              		.align	2
 698              		.global	HAL_FLASHEx_GetError
 699              		.code	16
 700              		.thumb_func
 702              	HAL_FLASHEx_GetError:
 703              	.LFB41:
 395:Drivers/STM32L0xx_HAL_Driver/Src/stm32l0xx_hal_flash_ramfunc.c **** { 
 704              		.loc 1 395 0
 705              		.cfi_startproc
 706              	.LVL60:
 396:Drivers/STM32L0xx_HAL_Driver/Src/stm32l0xx_hal_flash_ramfunc.c ****   *Error = pFlash.ErrorCode;
 707              		.loc 1 396 0
 708 02cc 024B     		ldr	r3, .L49
 709 02ce 5B69     		ldr	r3, [r3, #20]
 710 02d0 0360     		str	r3, [r0]
 398:Drivers/STM32L0xx_HAL_Driver/Src/stm32l0xx_hal_flash_ramfunc.c **** }
 711              		.loc 1 398 0
 712 02d2 0020     		mov	r0, #0
 713              	.LVL61:
 714              		@ sp needed
 715 02d4 7047     		bx	lr
 716              	.L50:
 717 02d6 C046     		.align	2
 718              	.L49:
 719 02d8 00000000 		.word	pFlash
 720              		.cfi_endproc
 721              	.LFE41:
 723              		.text
ARM GAS  /tmp/ccYoxJDu.s 			page 25


 724              	.Letext0:
 725              		.file 3 "/home/niklas/Downloads/gcc-arm-none-eabi-4_8-2014q3/arm-none-eabi/include/machine/_defaul
 726              		.file 4 "/home/niklas/Downloads/gcc-arm-none-eabi-4_8-2014q3/arm-none-eabi/include/stdint.h"
 727              		.file 5 "Drivers/CMSIS/Device/ST/STM32L0xx/Include/stm32l072xx.h"
 728              		.file 6 "Drivers/STM32L0xx_HAL_Driver/Inc/stm32l0xx_hal_def.h"
 729              		.file 7 "Drivers/STM32L0xx_HAL_Driver/Inc/stm32l0xx_hal_flash.h"
ARM GAS  /tmp/ccYoxJDu.s 			page 26

